Archive member included to satisfy reference by file (symbol)

build/cooja/mtype599.a(simEnvChange.o)
                              build/cooja/mtype599.o (simDontFallAsleep)
build/cooja/mtype599.a(cooja_mt.o)
                              build/cooja/mtype599.o (cooja_mt_start)
build/cooja/mtype599.a(cooja_mtarch.o)
                              build/cooja/mtype599.a(cooja_mt.o) (cooja_mtarch_start)
build/cooja/mtype599.a(rtimer-arch.o)
                              build/cooja/mtype599.o (rtimer_arch_check)
build/cooja/mtype599.a(beep.o)
                              build/cooja/mtype599.o (beep_interface)
build/cooja/mtype599.a(leds-arch.o)
                              build/cooja/mtype599.o (leds_interface)
build/cooja/mtype599.a(moteid.o)
                              build/cooja/mtype599.o (moteid_interface)
build/cooja/mtype599.a(pir-sensor.o)
                              build/cooja/mtype599.o (pir_interface)
build/cooja/mtype599.a(rs232.o)
                              build/cooja/mtype599.o (rs232_interface)
build/cooja/mtype599.a(vib-sensor.o)
                              build/cooja/mtype599.o (vib_interface)
build/cooja/mtype599.a(clock.o)
                              build/cooja/mtype599.o (clock_interface)
build/cooja/mtype599.a(cooja-log.o)
                              build/cooja/mtype599.o (simlog_interface)
build/cooja/mtype599.a(cfs-cooja.o)
                              build/cooja/mtype599.o (cfs_interface)
build/cooja/mtype599.a(cooja-radio.o)
                              build/cooja/mtype599.o (radio_interface)
build/cooja/mtype599.a(eeprom.o)
                              build/cooja/mtype599.o (eeprom_interface)
build/cooja/mtype599.a(random.o)
                              build/cooja/mtype599.a(moteid.o) (random_init)
build/cooja/mtype599.a(sensors.o)
                              build/cooja/mtype599.a(pir-sensor.o) (sensors_changed)
build/cooja/mtype599.a(leds.o)
                              build/cooja/mtype599.a(leds-arch.o) (leds_get)
build/cooja/mtype599.a(gpio-hal-arch.o)
                              build/cooja/mtype599.a(leds-arch.o) (gpio_hal_arch_register_pin_callback)
build/cooja/mtype599.a(buttons.o)
                              build/cooja/mtype599.o (button_interface)
build/cooja/mtype599.a(res_temperature)
                              temperature.o (name_assigned)
build/cooja/mtype599.a(coap-blocking-a)
                              temperature.o (coap_blocking_request)
build/cooja/mtype599.a(coap-engine.o)
                              temperature.o (coap_activate_resource)
build/cooja/mtype599.a(coap-res-well-k)
                              build/cooja/mtype599.a(coap-engine.o) (res_well_known_core)
build/cooja/mtype599.a(coap-observe.o)
                              build/cooja/mtype599.a(coap-engine.o) (coap_remove_observer_by_mid)
build/cooja/mtype599.a(coap-uip.o)
                              build/cooja/mtype599.a(coap-observe.o) (coap_endpoint_copy)
build/cooja/mtype599.a(coap-timer.o)
                              build/cooja/mtype599.a(coap-engine.o) (coap_timer_set)
build/cooja/mtype599.a(coap-transactio)
                              build/cooja/mtype599.a(coap-blocking-a) (coap_send_transaction)
build/cooja/mtype599.a(coap.o)
                              build/cooja/mtype599.a(coap-engine.o) (coap_status_code)
build/cooja/mtype599.a(contiki-main.o)
                              build/cooja/mtype599.o (main)
build/cooja/mtype599.a(autostart.o)
                              build/cooja/mtype599.a(contiki-main.o) (autostart_start)
build/cooja/mtype599.a(ctimer.o)
                              build/cooja/mtype599.a(contiki-main.o) (ctimer_init)
build/cooja/mtype599.a(log.o)
                              build/cooja/mtype599.a(contiki-main.o) (curr_log_level_main)
build/cooja/mtype599.a(energest.o)
                              build/cooja/mtype599.a(contiki-main.o) (energest_init)
build/cooja/mtype599.a(etimer.o)
                              build/cooja/mtype599.a(contiki-main.o) (etimer_process)
build/cooja/mtype599.a(node-id.o)
                              build/cooja/mtype599.a(contiki-main.o) (node_id)
build/cooja/mtype599.a(rtimer.o)
                              build/cooja/mtype599.a(contiki-main.o) (rtimer_init)
build/cooja/mtype599.a(process.o)
                              build/cooja/mtype599.a(coap-blocking-a) (process_current)
build/cooja/mtype599.a(timer.o)
                              build/cooja/mtype599.a(etimer.o) (timer_set)
build/cooja/mtype599.a(list.o)
                              build/cooja/mtype599.a(coap-engine.o) (list_init)
build/cooja/mtype599.a(memb.o)
                              build/cooja/mtype599.a(coap-observe.o) (memb_alloc)
build/cooja/mtype599.a(button-hal.o)
                              build/cooja/mtype599.o (button_hal_init)
build/cooja/mtype599.a(serial-line.o)
                              build/cooja/mtype599.a(rs232.o) (serial_line_input_byte)
build/cooja/mtype599.a(gpio-hal.o)
                              build/cooja/mtype599.a(button-hal.o) (gpio_hal_register_handler)
build/cooja/mtype599.a(queuebuf.o)
                              build/cooja/mtype599.a(contiki-main.o) (queuebuf_init)
build/cooja/mtype599.a(packetbuf.o)
                              build/cooja/mtype599.a(cooja-radio.o) (packetbuf_clear)
build/cooja/mtype599.a(netstack.o)
                              build/cooja/mtype599.a(contiki-main.o) (netstack_init)
build/cooja/mtype599.a(linkaddr.o)
                              build/cooja/mtype599.a(contiki-main.o) (linkaddr_node_addr)
build/cooja/mtype599.a(csma.o)
                              build/cooja/mtype599.a(cooja-radio.o) (csma_driver)
build/cooja/mtype599.a(csma-output.o)
                              build/cooja/mtype599.a(csma.o) (csma_output_packet)
build/cooja/mtype599.a(uip-ds6.o)
                              build/cooja/mtype599.a(contiki-main.o) (uip_ds6_get_link_local)
build/cooja/mtype599.a(uip-udp-packet.)
                              build/cooja/mtype599.a(coap-uip.o) (uip_udp_packet_sendto)
build/cooja/mtype599.a(uip-ds6-route.o)
                              build/cooja/mtype599.a(uip-ds6.o) (uip_ds6_route_init)
build/cooja/mtype599.a(tcpip.o)
                              build/cooja/mtype599.a(coap-uip.o) (tcpip_event)
build/cooja/mtype599.a(uip6.o)
                              build/cooja/mtype599.a(contiki-main.o) (uip_lladdr)
build/cooja/mtype599.a(uip-ds6-nbr.o)
                              build/cooja/mtype599.a(uip-ds6.o) (uip_ds6_neighbors_init)
build/cooja/mtype599.a(uip-nd6.o)
                              build/cooja/mtype599.a(uip6.o) (uip_nd6_init)
build/cooja/mtype599.a(simple-udp.o)
                              temperature.o (simple_udp_sendto)
build/cooja/mtype599.a(sicslowpan.o)
                              build/cooja/mtype599.a(contiki-main.o) (sicslowpan_driver)
build/cooja/mtype599.a(uiplib.o)
                              build/cooja/mtype599.a(coap-uip.o) (uiplib_ip6addrconv)
build/cooja/mtype599.a(rpl.o)
                              temperature.o (rpl_lite_driver)
build/cooja/mtype599.a(rpl-icmp6.o)
                              build/cooja/mtype599.a(rpl.o) (rpl_icmp6_init)
build/cooja/mtype599.a(rpl-dag-root.o)
                              build/cooja/mtype599.a(rpl.o) (rpl_dag_root_is_root)
build/cooja/mtype599.a(watchdog.o)
                              build/cooja/mtype599.a(contiki-main.o) (watchdog_init)
build/cooja/mtype599.a(int-master.o)
                              build/cooja/mtype599.a(button-hal.o) (int_master_read_and_disable)
build/cooja/mtype599.a(coap-timer-defa)
                              build/cooja/mtype599.a(coap-timer.o) (coap_timer_default_driver)
build/cooja/mtype599.a(stimer.o)
                              build/cooja/mtype599.a(uip-ds6.o) (stimer_set)
build/cooja/mtype599.a(ringbuf.o)
                              build/cooja/mtype599.a(serial-line.o) (ringbuf_init)
build/cooja/mtype599.a(assert.o)
                              build/cooja/mtype599.a(csma-output.o) (_xassert)
build/cooja/mtype599.a(nbr-table.o)
                              build/cooja/mtype599.a(uip-ds6-nbr.o) (nbr_table_register)
build/cooja/mtype599.a(link-stats.o)
                              build/cooja/mtype599.a(sicslowpan.o) (link_stats_packet_sent)
build/cooja/mtype599.a(mac-sequence.o)
                              build/cooja/mtype599.a(csma.o) (mac_sequence_is_duplicate)
build/cooja/mtype599.a(mac.o)
                              build/cooja/mtype599.a(csma-output.o) (mac_call_sent_callback)
build/cooja/mtype599.a(framer-802154.o)
                              build/cooja/mtype599.a(csma.o) (framer_802154)
build/cooja/mtype599.a(frame802154.o)
                              build/cooja/mtype599.a(framer-802154.o) (frame802154_get_pan_id)
build/cooja/mtype599.a(csma-security.o)
                              build/cooja/mtype599.a(csma-output.o) (csma_security_create_frame)
build/cooja/mtype599.a(uipbuf.o)
                              build/cooja/mtype599.a(tcpip.o) (uipbuf_clear)
build/cooja/mtype599.a(uip-icmp6.o)
                              build/cooja/mtype599.a(uip6.o) (uip_icmp6_input)
build/cooja/mtype599.a(uip-sr.o)
                              build/cooja/mtype599.a(rpl-dag-root.o) (uip_sr_num_nodes)
build/cooja/mtype599.a(uip-packetqueue)
                              build/cooja/mtype599.a(uip-ds6-nbr.o) (uip_packetqueue_new)
build/cooja/mtype599.a(rpl-nbr-policy.)
                              build/cooja/mtype599.a(nbr-table.o) (rpl_nbr_policy_find_removable)
build/cooja/mtype599.a(rpl-neighbor.o)
                              build/cooja/mtype599.a(rpl-icmp6.o) (rpl_neighbor_get_ipaddr)
build/cooja/mtype599.a(rpl-dag.o)
                              build/cooja/mtype599.a(rpl.o) (curr_instance)
build/cooja/mtype599.a(rpl-timers.o)
                              build/cooja/mtype599.a(rpl-dag.o) (rpl_timers_schedule_periodic_dis)
build/cooja/mtype599.a(rpl-ext-header.)
                              build/cooja/mtype599.a(rpl.o) (rpl_ext_header_srh_get_next_hop)
build/cooja/mtype599.a(rpl-mrhof.o)
                              build/cooja/mtype599.a(rpl-dag.o) (rpl_mrhof)
/usr/lib/gcc/i686-linux-gnu/5/libgcc.a(_udivdi3.o)
                              build/cooja/mtype599.a(coap-timer-defa) (__udivdi3)

Allocating common symbols
Common symbol       size              file

simButtonIsDown     0x1               build/cooja/mtype599.a(buttons.o)
simOutDataBuffer    0x7d              build/cooja/mtype599.a(cooja-radio.o)
uip_ds6_prefix_list
                    0x60              build/cooja/mtype599.a(uip-ds6.o)
linkaddr_node_addr  0x8               build/cooja/mtype599.a(linkaddr.o)
simSerialReceivingFlag
                    0x1               build/cooja/mtype599.a(rs232.o)
simEEPROMData       0x400             build/cooja/mtype599.a(eeprom.o)
periodic_timer      0x20              build/cooja/mtype599.a(link-stats.o)
simLoggedLength     0x4               build/cooja/mtype599.a(cooja-log.o)
simSerialReceivingLength
                    0x4               build/cooja/mtype599.a(rs232.o)
simEtimerPending    0x4               build/cooja/mtype599.a(simEnvChange.o)
uip_slen            0x2               build/cooja/mtype599.a(uip6.o)
s_timestamp         0x64              build/cooja/mtype599.a(res_temperature)
uip_ds6_timer_periodic
                    0x10              build/cooja/mtype599.a(uip-ds6.o)
eb_per_time_source  0x18              build/cooja/mtype599.a(contiki-main.o)
unicast_per_neighbor_rpl_storing
                    0x18              build/cooja/mtype599.a(contiki-main.o)
simVibChanged       0x1               build/cooja/mtype599.a(vib-sensor.o)
simRtimerPending    0x4               build/cooja/mtype599.a(rtimer-arch.o)
button_hal_periodic_event
                    0x1               build/cooja/mtype599.a(button-hal.o)
uip_ds6_netif_addr_list_offset
                    0x1               build/cooja/mtype599.a(uip-ds6.o)
uip_lladdr          0x8               build/cooja/mtype599.a(uip6.o)
button_hal_press_event
                    0x1               build/cooja/mtype599.a(button-hal.o)
simProcessRunValue  0x4               build/cooja/mtype599.a(simEnvChange.o)
serial_line_event_message
                    0x1               build/cooja/mtype599.a(serial-line.o)
uip_appdata         0x4               build/cooja/mtype599.a(uip6.o)
referenceVar        0x4               build/cooja/mtype599.o
simCurrentTime      0x4               build/cooja/mtype599.a(clock.o)
simVibIsActive      0x1               build/cooja/mtype599.a(vib-sensor.o)
unicast_per_neighbor_rpl_ns
                    0x18              build/cooja/mtype599.a(contiki-main.o)
uip_ds6_if          0xf8              build/cooja/mtype599.a(uip-ds6.o)
uip_flags           0x1               build/cooja/mtype599.a(uip6.o)
uip_ds6_timer_ra    0x8               build/cooja/mtype599.a(uip-ds6.o)
default_common      0x18              build/cooja/mtype599.a(contiki-main.o)
simSerialReceivingData
                    0x800             build/cooja/mtype599.a(rs232.o)
simLoggedFlag       0x1               build/cooja/mtype599.a(cooja-log.o)
packetbuf_attrs     0x1a              build/cooja/mtype599.a(packetbuf.o)
uip_ds6_addr_size   0x1               build/cooja/mtype599.a(uip-ds6.o)
uip_aligned_buf     0x500             build/cooja/mtype599.a(uip6.o)
simRtimerCurrentTicks
                    0x8               build/cooja/mtype599.a(rtimer-arch.o)
simRandomSeed       0x4               build/cooja/mtype599.a(moteid.o)
rpl_multicast_addr  0x10              build/cooja/mtype599.a(rpl.o)
simLoggedData       0x2000            build/cooja/mtype599.a(cooja-log.o)
simEtimerNextExpirationTime
                    0x4               build/cooja/mtype599.a(simEnvChange.o)
uip_len             0x2               build/cooja/mtype599.a(uip6.o)
simButtonChanged    0x1               build/cooja/mtype599.a(buttons.o)
simRtimerNextExpirationTime
                    0x8               build/cooja/mtype599.a(rtimer-arch.o)
simPirIsActive      0x1               build/cooja/mtype599.a(pir-sensor.o)
simInDataBuffer     0x7d              build/cooja/mtype599.a(cooja-radio.o)
temp                0x4               build/cooja/mtype599.a(res_temperature)
simPirChanged       0x1               build/cooja/mtype599.a(pir-sensor.o)
simBeeped           0x1               build/cooja/mtype599.a(beep.o)
actuator_ip         0x27              build/cooja/mtype599.a(res_temperature)
tcpip_event         0x1               build/cooja/mtype599.a(tcpip.o)
uip_sappdata        0x4               build/cooja/mtype599.a(uip6.o)
sensors_event       0x1               build/cooja/mtype599.a(sensors.o)
uip_udp_conns       0x100             build/cooja/mtype599.a(uip6.o)
button_hal_release_event
                    0x1               build/cooja/mtype599.a(button-hal.o)
packetbuf_addrs     0x10              build/cooja/mtype599.a(packetbuf.o)
uip_udp_conn        0x4               build/cooja/mtype599.a(uip6.o)
simMoteIDChanged    0x1               build/cooja/mtype599.a(moteid.o)
sensors_flags       0x4               build/cooja/mtype599.o
curr_instance       0x164             build/cooja/mtype599.a(rpl-dag.o)
mote_name           0xf               build/cooja/mtype599.a(res_temperature)
s_temp              0x3               build/cooja/mtype599.a(res_temperature)
simMoteID           0x4               build/cooja/mtype599.a(moteid.o)
uip_conn            0x4               build/cooja/mtype599.a(uip6.o)

Discarded input sections

 .note.GNU-stack
                0x0000000000000000        0x0 /usr/lib/gcc/i686-linux-gnu/5/../../../i386-linux-gnu/crti.o
 .group         0x0000000000000000        0x8 /usr/lib/gcc/i686-linux-gnu/5/crtbeginS.o
 .group         0x0000000000000000        0x8 /usr/lib/gcc/i686-linux-gnu/5/crtbeginS.o
 .text.__x86.get_pc_thunk.bx
                0x0000000000000000        0x4 /usr/lib/gcc/i686-linux-gnu/5/crtbeginS.o
 .note.GNU-stack
                0x0000000000000000        0x0 /usr/lib/gcc/i686-linux-gnu/5/crtbeginS.o
 .note.GNU-stack
                0x0000000000000000        0x0 temperature.o
 .note.GNU-stack
                0x0000000000000000        0x0 build/cooja/mtype599.o
 .note.GNU-stack
                0x0000000000000000        0x0 build/cooja/mtype599.a(simEnvChange.o)
 .note.GNU-stack
                0x0000000000000000        0x0 build/cooja/mtype599.a(cooja_mt.o)
 .note.GNU-stack
                0x0000000000000000        0x0 build/cooja/mtype599.a(cooja_mtarch.o)
 .note.GNU-stack
                0x0000000000000000        0x0 build/cooja/mtype599.a(rtimer-arch.o)
 .note.GNU-stack
                0x0000000000000000        0x0 build/cooja/mtype599.a(beep.o)
 .note.GNU-stack
                0x0000000000000000        0x0 build/cooja/mtype599.a(leds-arch.o)
 .note.GNU-stack
                0x0000000000000000        0x0 build/cooja/mtype599.a(moteid.o)
 .note.GNU-stack
                0x0000000000000000        0x0 build/cooja/mtype599.a(pir-sensor.o)
 .note.GNU-stack
                0x0000000000000000        0x0 build/cooja/mtype599.a(rs232.o)
 .note.GNU-stack
                0x0000000000000000        0x0 build/cooja/mtype599.a(vib-sensor.o)
 .note.GNU-stack
                0x0000000000000000        0x0 build/cooja/mtype599.a(clock.o)
 .note.GNU-stack
                0x0000000000000000        0x0 build/cooja/mtype599.a(cooja-log.o)
 .note.GNU-stack
                0x0000000000000000        0x0 build/cooja/mtype599.a(cfs-cooja.o)
 .note.GNU-stack
                0x0000000000000000        0x0 build/cooja/mtype599.a(cooja-radio.o)
 .note.GNU-stack
                0x0000000000000000        0x0 build/cooja/mtype599.a(eeprom.o)
 .note.GNU-stack
                0x0000000000000000        0x0 build/cooja/mtype599.a(random.o)
 .note.GNU-stack
                0x0000000000000000        0x0 build/cooja/mtype599.a(sensors.o)
 .note.GNU-stack
                0x0000000000000000        0x0 build/cooja/mtype599.a(leds.o)
 .note.GNU-stack
                0x0000000000000000        0x0 build/cooja/mtype599.a(gpio-hal-arch.o)
 .note.GNU-stack
                0x0000000000000000        0x0 build/cooja/mtype599.a(buttons.o)
 .note.GNU-stack
                0x0000000000000000        0x0 build/cooja/mtype599.a(res_temperature)
 .note.GNU-stack
                0x0000000000000000        0x0 build/cooja/mtype599.a(coap-blocking-a)
 .note.GNU-stack
                0x0000000000000000        0x0 build/cooja/mtype599.a(coap-engine.o)
 .note.GNU-stack
                0x0000000000000000        0x0 build/cooja/mtype599.a(coap-res-well-k)
 .note.GNU-stack
                0x0000000000000000        0x0 build/cooja/mtype599.a(coap-observe.o)
 .note.GNU-stack
                0x0000000000000000        0x0 build/cooja/mtype599.a(coap-uip.o)
 .note.GNU-stack
                0x0000000000000000        0x0 build/cooja/mtype599.a(coap-timer.o)
 .note.GNU-stack
                0x0000000000000000        0x0 build/cooja/mtype599.a(coap-transactio)
 .note.GNU-stack
                0x0000000000000000        0x0 build/cooja/mtype599.a(coap.o)
 .note.GNU-stack
                0x0000000000000000        0x0 build/cooja/mtype599.a(contiki-main.o)
 .note.GNU-stack
                0x0000000000000000        0x0 build/cooja/mtype599.a(autostart.o)
 .note.GNU-stack
                0x0000000000000000        0x0 build/cooja/mtype599.a(ctimer.o)
 .note.GNU-stack
                0x0000000000000000        0x0 build/cooja/mtype599.a(log.o)
 .note.GNU-stack
                0x0000000000000000        0x0 build/cooja/mtype599.a(energest.o)
 .note.GNU-stack
                0x0000000000000000        0x0 build/cooja/mtype599.a(etimer.o)
 .note.GNU-stack
                0x0000000000000000        0x0 build/cooja/mtype599.a(node-id.o)
 .note.GNU-stack
                0x0000000000000000        0x0 build/cooja/mtype599.a(rtimer.o)
 .note.GNU-stack
                0x0000000000000000        0x0 build/cooja/mtype599.a(process.o)
 .note.GNU-stack
                0x0000000000000000        0x0 build/cooja/mtype599.a(timer.o)
 .note.GNU-stack
                0x0000000000000000        0x0 build/cooja/mtype599.a(list.o)
 .note.GNU-stack
                0x0000000000000000        0x0 build/cooja/mtype599.a(memb.o)
 .note.GNU-stack
                0x0000000000000000        0x0 build/cooja/mtype599.a(button-hal.o)
 .note.GNU-stack
                0x0000000000000000        0x0 build/cooja/mtype599.a(serial-line.o)
 .note.GNU-stack
                0x0000000000000000        0x0 build/cooja/mtype599.a(gpio-hal.o)
 .note.GNU-stack
                0x0000000000000000        0x0 build/cooja/mtype599.a(queuebuf.o)
 .note.GNU-stack
                0x0000000000000000        0x0 build/cooja/mtype599.a(packetbuf.o)
 .note.GNU-stack
                0x0000000000000000        0x0 build/cooja/mtype599.a(netstack.o)
 .note.GNU-stack
                0x0000000000000000        0x0 build/cooja/mtype599.a(linkaddr.o)
 .note.GNU-stack
                0x0000000000000000        0x0 build/cooja/mtype599.a(csma.o)
 .note.GNU-stack
                0x0000000000000000        0x0 build/cooja/mtype599.a(csma-output.o)
 .note.GNU-stack
                0x0000000000000000        0x0 build/cooja/mtype599.a(uip-ds6.o)
 .note.GNU-stack
                0x0000000000000000        0x0 build/cooja/mtype599.a(uip-udp-packet.)
 .note.GNU-stack
                0x0000000000000000        0x0 build/cooja/mtype599.a(uip-ds6-route.o)
 .note.GNU-stack
                0x0000000000000000        0x0 build/cooja/mtype599.a(tcpip.o)
 .note.GNU-stack
                0x0000000000000000        0x0 build/cooja/mtype599.a(uip6.o)
 .note.GNU-stack
                0x0000000000000000        0x0 build/cooja/mtype599.a(uip-ds6-nbr.o)
 .note.GNU-stack
                0x0000000000000000        0x0 build/cooja/mtype599.a(uip-nd6.o)
 .note.GNU-stack
                0x0000000000000000        0x0 build/cooja/mtype599.a(simple-udp.o)
 .note.GNU-stack
                0x0000000000000000        0x0 build/cooja/mtype599.a(sicslowpan.o)
 .note.GNU-stack
                0x0000000000000000        0x0 build/cooja/mtype599.a(uiplib.o)
 .note.GNU-stack
                0x0000000000000000        0x0 build/cooja/mtype599.a(rpl.o)
 .note.GNU-stack
                0x0000000000000000        0x0 build/cooja/mtype599.a(rpl-icmp6.o)
 .note.GNU-stack
                0x0000000000000000        0x0 build/cooja/mtype599.a(rpl-dag-root.o)
 .note.GNU-stack
                0x0000000000000000        0x0 build/cooja/mtype599.a(watchdog.o)
 .note.GNU-stack
                0x0000000000000000        0x0 build/cooja/mtype599.a(int-master.o)
 .note.GNU-stack
                0x0000000000000000        0x0 build/cooja/mtype599.a(coap-timer-defa)
 .note.GNU-stack
                0x0000000000000000        0x0 build/cooja/mtype599.a(stimer.o)
 .note.GNU-stack
                0x0000000000000000        0x0 build/cooja/mtype599.a(ringbuf.o)
 .note.GNU-stack
                0x0000000000000000        0x0 build/cooja/mtype599.a(assert.o)
 .note.GNU-stack
                0x0000000000000000        0x0 build/cooja/mtype599.a(nbr-table.o)
 .note.GNU-stack
                0x0000000000000000        0x0 build/cooja/mtype599.a(link-stats.o)
 .note.GNU-stack
                0x0000000000000000        0x0 build/cooja/mtype599.a(mac-sequence.o)
 .note.GNU-stack
                0x0000000000000000        0x0 build/cooja/mtype599.a(mac.o)
 .note.GNU-stack
                0x0000000000000000        0x0 build/cooja/mtype599.a(framer-802154.o)
 .note.GNU-stack
                0x0000000000000000        0x0 build/cooja/mtype599.a(frame802154.o)
 .note.GNU-stack
                0x0000000000000000        0x0 build/cooja/mtype599.a(csma-security.o)
 .note.GNU-stack
                0x0000000000000000        0x0 build/cooja/mtype599.a(uipbuf.o)
 .note.GNU-stack
                0x0000000000000000        0x0 build/cooja/mtype599.a(uip-icmp6.o)
 .note.GNU-stack
                0x0000000000000000        0x0 build/cooja/mtype599.a(uip-sr.o)
 .note.GNU-stack
                0x0000000000000000        0x0 build/cooja/mtype599.a(uip-packetqueue)
 .note.GNU-stack
                0x0000000000000000        0x0 build/cooja/mtype599.a(rpl-nbr-policy.)
 .note.GNU-stack
                0x0000000000000000        0x0 build/cooja/mtype599.a(rpl-neighbor.o)
 .note.GNU-stack
                0x0000000000000000        0x0 build/cooja/mtype599.a(rpl-dag.o)
 .note.GNU-stack
                0x0000000000000000        0x0 build/cooja/mtype599.a(rpl-timers.o)
 .note.GNU-stack
                0x0000000000000000        0x0 build/cooja/mtype599.a(rpl-ext-header.)
 .note.GNU-stack
                0x0000000000000000        0x0 build/cooja/mtype599.a(rpl-mrhof.o)
 .note.GNU-stack
                0x0000000000000000        0x0 /usr/lib/gcc/i686-linux-gnu/5/libgcc.a(_udivdi3.o)
 .note.GNU-stack
                0x0000000000000000        0x0 /usr/lib/gcc/i686-linux-gnu/5/crtendS.o
 .note.GNU-stack
                0x0000000000000000        0x0 /usr/lib/gcc/i686-linux-gnu/5/../../../i386-linux-gnu/crtn.o

Memory Configuration

Name             Origin             Length             Attributes
*default*        0x0000000000000000 0xffffffffffffffff

Linker script and memory map

LOAD /usr/lib/gcc/i686-linux-gnu/5/../../../i386-linux-gnu/crti.o
LOAD /usr/lib/gcc/i686-linux-gnu/5/crtbeginS.o
LOAD temperature.o
LOAD build/cooja/mtype599.o
LOAD build/cooja/mtype599.a
LOAD /usr/lib/gcc/i686-linux-gnu/5/libgcc.a
LOAD /usr/lib/gcc/i686-linux-gnu/5/libgcc_s.so
LOAD /usr/lib/gcc/i686-linux-gnu/5/../../../i386-linux-gnu/libc.so
START GROUP
LOAD /lib/i386-linux-gnu/libc.so.6
LOAD /usr/lib/i386-linux-gnu/libc_nonshared.a
LOAD /lib/i386-linux-gnu/ld-linux.so.2
END GROUP
LOAD /usr/lib/gcc/i686-linux-gnu/5/libgcc.a
LOAD /usr/lib/gcc/i686-linux-gnu/5/libgcc_s.so
LOAD /usr/lib/gcc/i686-linux-gnu/5/crtendS.o
LOAD /usr/lib/gcc/i686-linux-gnu/5/../../../i386-linux-gnu/crtn.o
                0x0000000000000114                . = (0x0 + SIZEOF_HEADERS)

.note.gnu.build-id
                0x0000000000000114       0x24
 *(.note.gnu.build-id)
 .note.gnu.build-id
                0x0000000000000114       0x24 /usr/lib/gcc/i686-linux-gnu/5/../../../i386-linux-gnu/crti.o

.hash
 *(.hash)

.gnu.hash       0x0000000000000138     0x15cc
 *(.gnu.hash)
 .gnu.hash      0x0000000000000138     0x15cc /usr/lib/gcc/i686-linux-gnu/5/../../../i386-linux-gnu/crti.o

.dynsym         0x0000000000001704     0x2fe0
 *(.dynsym)
 .dynsym        0x0000000000001704     0x2fe0 /usr/lib/gcc/i686-linux-gnu/5/../../../i386-linux-gnu/crti.o

.dynstr         0x00000000000046e4     0x375f
 *(.dynstr)
 .dynstr        0x00000000000046e4     0x375f /usr/lib/gcc/i686-linux-gnu/5/../../../i386-linux-gnu/crti.o

.gnu.version    0x0000000000007e44      0x5fc
 *(.gnu.version)
 .gnu.version   0x0000000000007e44      0x5fc /usr/lib/gcc/i686-linux-gnu/5/../../../i386-linux-gnu/crti.o

.gnu.version_d  0x0000000000008440        0x0
 *(.gnu.version_d)
 .gnu.version_d
                0x0000000000008440        0x0 /usr/lib/gcc/i686-linux-gnu/5/../../../i386-linux-gnu/crti.o

.gnu.version_r  0x0000000000008440       0x40
 *(.gnu.version_r)
 .gnu.version_r
                0x0000000000008440       0x40 /usr/lib/gcc/i686-linux-gnu/5/../../../i386-linux-gnu/crti.o

.rel.dyn        0x0000000000008480     0x93d0
 *(.rel.init)
 .rel.init      0x0000000000008480        0x0 /usr/lib/gcc/i686-linux-gnu/5/../../../i386-linux-gnu/crti.o
 *(.rel.text .rel.text.* .rel.gnu.linkonce.t.*)
 .rel.text      0x0000000000008480     0x89d0 /usr/lib/gcc/i686-linux-gnu/5/../../../i386-linux-gnu/crti.o
 *(.rel.fini)
 .rel.fini      0x0000000000010e50        0x0 /usr/lib/gcc/i686-linux-gnu/5/../../../i386-linux-gnu/crti.o
 *(.rel.rodata .rel.rodata.* .rel.gnu.linkonce.r.*)
 .rel.rodata    0x0000000000010e50      0x598 /usr/lib/gcc/i686-linux-gnu/5/../../../i386-linux-gnu/crti.o
 *(.rel.data.rel.ro .rel.data.rel.ro.* .rel.gnu.linkonce.d.rel.ro.*)
 *(.rel.data .rel.data.* .rel.gnu.linkonce.d.*)
 .rel.data.rel.local
                0x00000000000113e8        0x8 /usr/lib/gcc/i686-linux-gnu/5/../../../i386-linux-gnu/crti.o
 .rel.data      0x00000000000113f0      0x428 /usr/lib/gcc/i686-linux-gnu/5/../../../i386-linux-gnu/crti.o
 *(.rel.tdata .rel.tdata.* .rel.gnu.linkonce.td.*)
 *(.rel.tbss .rel.tbss.* .rel.gnu.linkonce.tb.*)
 *(.rel.ctors)
 *(.rel.dtors)
 *(.rel.got)
 .rel.got       0x0000000000011818       0x28 /usr/lib/gcc/i686-linux-gnu/5/../../../i386-linux-gnu/crti.o
 *(.rel.bss .rel.bss.* .rel.gnu.linkonce.b.*)
 *(.rel.ifunc)
 .rel.ifunc     0x0000000000011840        0x0 /usr/lib/gcc/i686-linux-gnu/5/../../../i386-linux-gnu/crti.o
 .rel.fini_array
                0x0000000000011840        0x8 /usr/lib/gcc/i686-linux-gnu/5/../../../i386-linux-gnu/crti.o
 .rel.init_array
                0x0000000000011848        0x8 /usr/lib/gcc/i686-linux-gnu/5/../../../i386-linux-gnu/crti.o

.rel.plt        0x0000000000011850        0x0
 *(.rel.plt)
 .rel.plt       0x0000000000011850        0x0 /usr/lib/gcc/i686-linux-gnu/5/../../../i386-linux-gnu/crti.o
 *(.rel.iplt)

.init           0x0000000000011850       0x23
 *(SORT(.init))
 .init          0x0000000000011850       0x1e /usr/lib/gcc/i686-linux-gnu/5/../../../i386-linux-gnu/crti.o
                0x0000000000011850                _init
 .init          0x000000000001186e        0x5 /usr/lib/gcc/i686-linux-gnu/5/../../../i386-linux-gnu/crtn.o

.plt            0x0000000000011880       0x10
 *(.plt)
 .plt           0x0000000000011880       0x10 /usr/lib/gcc/i686-linux-gnu/5/../../../i386-linux-gnu/crti.o
 *(.iplt)

.plt.got        0x0000000000011890       0x10
 *(.plt.got)
 .plt.got       0x0000000000011890       0x10 /usr/lib/gcc/i686-linux-gnu/5/../../../i386-linux-gnu/crti.o

.text           0x00000000000118a0    0x18ef2
 *(.text.unlikely .text.*_unlikely .text.unlikely.*)
 .text.unlikely
                0x00000000000118a0        0x0 /usr/lib/gcc/i686-linux-gnu/5/crtbeginS.o
 .text.unlikely
                0x00000000000118a0        0x0 /usr/lib/gcc/i686-linux-gnu/5/libgcc.a(_udivdi3.o)
 *(.text.exit .text.exit.*)
 *(.text.startup .text.startup.*)
 *(.text.hot .text.hot.*)
 *(.text .stub .text.* .gnu.linkonce.t.*)
 .text          0x00000000000118a0        0x0 /usr/lib/gcc/i686-linux-gnu/5/../../../i386-linux-gnu/crti.o
 .gnu.linkonce.t.__x86.get_pc_thunk.bx
                0x00000000000118a0        0x4 /usr/lib/gcc/i686-linux-gnu/5/../../../i386-linux-gnu/crti.o
                0x00000000000118a0                __x86.get_pc_thunk.bx
 *fill*         0x00000000000118a4        0xc 
 .text          0x00000000000118b0      0x11c /usr/lib/gcc/i686-linux-gnu/5/crtbeginS.o
 .text.__x86.get_pc_thunk.dx
                0x00000000000119cc        0x4 /usr/lib/gcc/i686-linux-gnu/5/crtbeginS.o
                0x00000000000119cc                __x86.get_pc_thunk.dx
 .text          0x00000000000119d0      0x69b temperature.o
                0x0000000000011a01                response_handler
 .text          0x000000000001206b      0x283 build/cooja/mtype599.o
                0x00000000000120fd                platform_init_stage_one
                0x0000000000012110                platform_init_stage_two
                0x0000000000012123                platform_init_stage_three
                0x0000000000012136                platform_main_loop
                0x00000000000121a9                Java_org_contikios_cooja_corecomm_Lib38_init
                0x00000000000121e0                Java_org_contikios_cooja_corecomm_Lib38_getMemory
                0x0000000000012213                Java_org_contikios_cooja_corecomm_Lib38_setMemory
                0x0000000000012273                Java_org_contikios_cooja_corecomm_Lib38_tick
                0x00000000000122db                Java_org_contikios_cooja_corecomm_Lib38_setReferenceAddress
 .text          0x00000000000122ee       0x65 build/cooja/mtype599.a(simEnvChange.o)
                0x00000000000122ee                doActionsBeforeTick
                0x0000000000012320                doActionsAfterTick
 .text          0x0000000000012353       0x83 build/cooja/mtype599.a(cooja_mt.o)
                0x0000000000012353                cooja_mt_start
                0x000000000001237d                cooja_mt_exec
                0x00000000000123b3                cooja_mt_yield
 .text          0x00000000000123d6       0xbe build/cooja/mtype599.a(cooja_mtarch.o)
                0x00000000000123d6                cooja_mtarch_start
                0x0000000000012449                cooja_sw
                0x000000000001246c                cooja_mtarch_exec
                0x0000000000012489                cooja_mtarch_yield
 .text          0x0000000000012494       0xc5 build/cooja/mtype599.a(rtimer-arch.o)
                0x0000000000012494                rtimer_arch_init
                0x00000000000124b8                rtimer_arch_schedule
                0x00000000000124e8                rtimer_arch_next
                0x00000000000124f8                rtimer_arch_pending
                0x0000000000012502                rtimer_arch_check
                0x0000000000012549                rtimer_arch_now
 .text          0x0000000000012559       0x81 build/cooja/mtype599.a(beep.o)
                0x0000000000012559                beep_alarm
                0x0000000000012566                beep_beep
                0x0000000000012573                beep
                0x0000000000012580                beep_down
                0x000000000001258d                beep_on
                0x000000000001259a                beep_off
                0x00000000000125a7                beep_spinup
                0x00000000000125b4                beep_quick
                0x00000000000125c1                beep_long
 .text          0x00000000000125da       0x65 build/cooja/mtype599.a(leds-arch.o)
                0x00000000000125ed                leds_arch_init
 .text          0x000000000001263f       0x35 build/cooja/mtype599.a(moteid.o)
 .text          0x0000000000012674       0xb7 build/cooja/mtype599.a(pir-sensor.o)
 .text          0x000000000001272b      0x148 build/cooja/mtype599.a(rs232.o)
                0x000000000001272b                rs232_init
                0x0000000000012731                rs232_set_speed
                0x0000000000012740                rs232_set_input
                0x000000000001274e                rs232_send
                0x0000000000012772                rs232_print
                0x000000000001278e                slip_arch_writeb
 .text          0x0000000000012873       0xb7 build/cooja/mtype599.a(vib-sensor.o)
 .text          0x000000000001292a       0x38 build/cooja/mtype599.a(clock.o)
                0x000000000001292a                clock_init
                0x0000000000012930                clock_time
                0x000000000001293a                clock_seconds
                0x0000000000012950                clock_delay
 .text          0x0000000000012962      0x219 build/cooja/mtype599.a(cooja-log.o)
                0x0000000000012962                simlog_char
                0x00000000000129a5                simlog
                0x0000000000012a1b                log_message
                0x0000000000012a4c                log_set_putchar_with_slip
                0x0000000000012a5a                log_putchar
                0x0000000000012ad5                log_puts
                0x0000000000012afd                log_printf
 .text          0x0000000000012b7b      0x2b9 build/cooja/mtype599.a(cfs-cooja.o)
                0x0000000000012b7b                cfs_open
                0x0000000000012be4                cfs_close
                0x0000000000012bf1                cfs_read
                0x0000000000012c86                cfs_write
                0x0000000000012d62                cfs_seek
                0x0000000000012dea                cfs_remove
                0x0000000000012e0e                cfs_opendir
                0x0000000000012e18                cfs_readdir
                0x0000000000012e22                cfs_closedir
 .text          0x0000000000012e34      0x620 build/cooja/mtype599.a(cooja-radio.o)
                0x0000000000012e76                radio_set_channel
                0x0000000000012e84                radio_set_txpower
                0x0000000000012e9c                radio_signal_strength_last
                0x0000000000012ea6                radio_signal_strength_current
                0x0000000000012eb0                radio_LQI
 .text          0x0000000000013454       0xee build/cooja/mtype599.a(eeprom.o)
                0x0000000000013454                eeprom_init
                0x000000000001345a                eeprom_read
                0x00000000000134c8                eeprom_write
 .text          0x0000000000013542       0x2d build/cooja/mtype599.a(random.o)
                0x0000000000013542                random_init
                0x0000000000013562                random_rand
 .text          0x000000000001356f      0x29c build/cooja/mtype599.a(sensors.o)
                0x00000000000135aa                sensors_first
                0x00000000000135b4                sensors_next
                0x00000000000135ce                sensors_changed
                0x0000000000013602                sensors_find
 .text          0x000000000001380b      0x349 build/cooja/mtype599.a(leds.o)
                0x000000000001380b                leds_init
                0x0000000000013852                leds_single_on
                0x00000000000138b1                leds_single_off
                0x0000000000013910                leds_single_toggle
                0x0000000000013942                leds_on
                0x00000000000139c4                leds_off
                0x0000000000013a46                leds_toggle
                0x0000000000013a9b                leds_set
                0x0000000000013ac7                leds_get
 .text          0x0000000000013b54      0x343 build/cooja/mtype599.a(gpio-hal-arch.o)
                0x0000000000013b54                gpio_hal_arch_register_pin_callback
                0x0000000000013bc0                gpio_hal_arch_init
                0x0000000000013c05                gpio_hal_arch_no_port_interrupt_enable
                0x0000000000013c35                gpio_hal_arch_no_port_interrupt_disable
                0x0000000000013c65                gpio_hal_arch_no_port_pin_cfg_set
                0x0000000000013c8a                gpio_hal_arch_no_port_pin_cfg_get
                0x0000000000013cb0                gpio_hal_arch_no_port_pin_set_input
                0x0000000000013cc2                gpio_hal_arch_no_port_pin_set_output
                0x0000000000013cd4                gpio_hal_arch_no_port_set_pin
                0x0000000000013cf5                gpio_hal_arch_no_port_clear_pin
                0x0000000000013d16                gpio_hal_arch_no_port_read_pin
                0x0000000000013d3c                gpio_hal_arch_no_port_write_pin
                0x0000000000013d66                gpio_hal_arch_no_port_set_pins
                0x0000000000013dad                gpio_hal_arch_no_port_clear_pins
                0x0000000000013df4                gpio_hal_arch_no_port_read_pins
                0x0000000000013e37                gpio_hal_arch_no_port_write_pins
 .text          0x0000000000013e97       0x89 build/cooja/mtype599.a(buttons.o)
 .text          0x0000000000013f20      0x3f3 build/cooja/mtype599.a(res_temperature)
 .text          0x0000000000014313      0x27b build/cooja/mtype599.a(coap-blocking-a)
                0x0000000000014313                coap_blocking_request_callback
                0x000000000001433d                coap_blocking_request
 .text          0x000000000001458e      0xbea build/cooja/mtype599.a(coap-engine.o)
                0x0000000000014623                coap_add_handler
                0x0000000000014640                coap_remove_handler
                0x000000000001465d                coap_call_handlers
                0x0000000000014765                coap_receive
                0x0000000000014d60                coap_engine_init
                0x0000000000014dbe                coap_activate_resource
                0x0000000000014e69                coap_get_first_resource
                0x0000000000014e82                coap_get_next_resource
 .text          0x0000000000015178      0x2d9 build/cooja/mtype599.a(coap-res-well-k)
 .text          0x0000000000015451      0x96a build/cooja/mtype599.a(coap-observe.o)
                0x0000000000015566                coap_remove_observer
                0x0000000000015596                coap_remove_observer_by_client
                0x00000000000155fe                coap_remove_observer_by_token
                0x0000000000015691                coap_remove_observer_by_uri
                0x0000000000015738                coap_remove_observer_by_mid
                0x00000000000157b4                coap_notify_observers
                0x00000000000157cd                coap_notify_observers_sub
                0x0000000000015c37                coap_observe_handler
                0x0000000000015d52                coap_has_observers
 .text          0x0000000000015dbb      0x733 build/cooja/mtype599.a(coap-uip.o)
                0x0000000000015dbb                coap_endpoint_log
                0x0000000000015e41                coap_endpoint_print
                0x0000000000015ec7                coap_endpoint_snprint
                0x0000000000015ffa                coap_endpoint_copy
                0x0000000000016037                coap_endpoint_cmp
                0x0000000000016145                coap_endpoint_parse
                0x0000000000016330                coap_endpoint_is_secure
                0x000000000001633f                coap_endpoint_is_connected
                0x0000000000016373                coap_endpoint_connect
                0x000000000001638f                coap_endpoint_disconnect
                0x0000000000016395                coap_databuf
                0x000000000001639f                coap_transport_init
                0x00000000000163ef                coap_sendto
 .text          0x00000000000164ee      0x324 build/cooja/mtype599.a(coap-timer.o)
                0x00000000000165eb                coap_timer_stop
                0x0000000000016616                coap_timer_set
                0x0000000000016659                coap_timer_reset
                0x000000000001669c                coap_timer_time_to_next_expiration
                0x0000000000016708                coap_timer_run
                0x00000000000167d4                coap_timer_init
 .text          0x0000000000016812      0x2c6 build/cooja/mtype599.a(coap-transactio)
                0x0000000000016878                coap_new_transaction
                0x00000000000168de                coap_send_transaction
                0x0000000000016a3f                coap_clear_transaction
                0x0000000000016a87                coap_get_transaction_by_mid
 .text          0x0000000000016ad8     0x1c53 build/cooja/mtype599.a(coap.o)
                0x0000000000017045                coap_init_connection
                0x0000000000017059                coap_get_mid
                0x0000000000017075                coap_init_message
                0x00000000000170be                coap_serialize_message
                0x0000000000017740                coap_parse_message
                0x0000000000017da7                coap_get_query_variable
                0x0000000000017de9                coap_get_post_variable
                0x0000000000017e2d                coap_set_status_code
                0x0000000000017e52                coap_set_token
                0x0000000000017e99                coap_get_header_content_format
                0x0000000000017eca                coap_set_header_content_format
                0x0000000000017eed                coap_get_header_accept
                0x0000000000017f1e                coap_set_header_accept
                0x0000000000017f41                coap_get_header_max_age
                0x0000000000017f72                coap_set_header_max_age
                0x0000000000017f92                coap_get_header_etag
                0x0000000000017fc4                coap_set_header_etag
                0x000000000001801b                coap_get_header_if_match
                0x000000000001804d                coap_set_header_if_match
                0x00000000000180a4                coap_get_header_if_none_match
                0x00000000000180be                coap_set_header_if_none_match
                0x00000000000180d5                coap_get_header_proxy_uri
                0x0000000000018103                coap_set_header_proxy_uri
                0x0000000000018140                coap_get_header_uri_host
                0x000000000001816e                coap_set_header_uri_host
                0x00000000000181ab                coap_get_header_uri_path
                0x00000000000181d9                coap_set_header_uri_path
                0x0000000000018226                coap_get_header_uri_query
                0x000000000001825a                coap_set_header_uri_query
                0x00000000000182b0                coap_get_header_location_path
                0x00000000000182de                coap_set_header_location_path
                0x0000000000018377                coap_get_header_location_query
                0x00000000000183a5                coap_set_header_location_query
                0x00000000000183f2                coap_get_header_observe
                0x0000000000018421                coap_set_header_observe
                0x0000000000018441                coap_get_header_block2
                0x00000000000184ad                coap_set_header_block2
                0x0000000000018524                coap_get_header_block1
                0x0000000000018599                coap_set_header_block1
                0x0000000000018614                coap_get_header_size2
                0x0000000000018644                coap_set_header_size2
                0x0000000000018667                coap_get_header_size1
                0x0000000000018697                coap_set_header_size1
                0x00000000000186ba                coap_get_payload
                0x00000000000186f4                coap_set_payload
 .text          0x000000000001872b      0x332 build/cooja/mtype599.a(contiki-main.o)
                0x000000000001872b                main
 .text          0x0000000000018a5d       0x92 build/cooja/mtype599.a(autostart.o)
                0x0000000000018a5d                autostart_start
                0x0000000000018aa7                autostart_exit
 .text          0x0000000000018aef      0x355 build/cooja/mtype599.a(ctimer.o)
                0x0000000000018c17                ctimer_init
                0x0000000000018c4a                ctimer_set
                0x0000000000018c70                ctimer_set_with_process
                0x0000000000018ced                ctimer_reset
                0x0000000000018d41                ctimer_restart
                0x0000000000018d95                ctimer_stop
                0x0000000000018de5                ctimer_expired
 .text          0x0000000000018e44      0x394 build/cooja/mtype599.a(log.o)
                0x0000000000018e44                log_6addr
                0x0000000000018e97                log_6addr_compact_snprint
                0x0000000000018f35                log_6addr_compact
                0x0000000000018f88                log_lladdr
                0x0000000000018ffa                log_lladdr_compact
                0x0000000000019062                log_set_level
                0x000000000001911d                log_get_level
                0x0000000000019196                log_level_to_str
 .text          0x00000000000191d8       0x1b build/cooja/mtype599.a(energest.o)
                0x00000000000191d8                energest_init
                0x00000000000191de                energest_flush
                0x00000000000191e4                energest_get_total_time
 .text          0x00000000000191f3      0x43f build/cooja/mtype599.a(etimer.o)
                0x0000000000019417                etimer_request_poll
                0x00000000000194a0                etimer_set
                0x00000000000194c9                etimer_reset_with_new_interval
                0x00000000000194f8                etimer_reset
                0x000000000001951e                etimer_restart
                0x0000000000019544                etimer_adjust
                0x0000000000019561                etimer_expired
                0x0000000000019574                etimer_expiration_time
                0x0000000000019586                etimer_start_time
                0x0000000000019590                etimer_pending
                0x00000000000195a2                etimer_next_expiration_time
                0x00000000000195bc                etimer_stop
 .text          0x0000000000019632       0x25 build/cooja/mtype599.a(node-id.o)
                0x0000000000019632                node_id_init
 .text          0x0000000000019657       0xeb build/cooja/mtype599.a(rtimer.o)
                0x0000000000019657                rtimer_init
                0x0000000000019665                rtimer_set
                0x00000000000196e0                rtimer_run_next
 .text          0x0000000000019742      0x4fb build/cooja/mtype599.a(process.o)
                0x0000000000019742                process_alloc_event
                0x0000000000019757                process_start
                0x0000000000019931                process_exit
                0x000000000001994e                process_init
                0x0000000000019ae3                process_run
                0x0000000000019b16                process_nevents
                0x0000000000019b31                process_post
                0x0000000000019bc4                process_post_synch
                0x0000000000019bf9                process_poll
                0x0000000000019c29                process_is_running
 .text          0x0000000000019c3d       0xb1 build/cooja/mtype599.a(timer.o)
                0x0000000000019c3d                timer_set
                0x0000000000019c5b                timer_reset
                0x0000000000019c88                timer_restart
                0x0000000000019c9d                timer_expired
                0x0000000000019cca                timer_remaining
 .text          0x0000000000019cee      0x28f build/cooja/mtype599.a(list.o)
                0x0000000000019cee                list_init
                0x0000000000019cfd                list_head
                0x0000000000019d07                list_copy
                0x0000000000019d17                list_tail
                0x0000000000019d4d                list_add
                0x0000000000019d99                list_push
                0x0000000000019dc5                list_chop
                0x0000000000019e2f                list_pop
                0x0000000000019e57                list_remove
                0x0000000000019ebf                list_length
                0x0000000000019eed                list_insert
                0x0000000000019f32                list_item_next
                0x0000000000019f49                list_contains
 .text          0x0000000000019f7d      0x1b5 build/cooja/mtype599.a(memb.o)
                0x0000000000019f7d                memb_init
                0x0000000000019fd2                memb_alloc
                0x000000000001a035                memb_free
                0x000000000001a0ac                memb_inmemb
                0x000000000001a0eb                memb_numfree
 .text          0x000000000001a132      0x41c build/cooja/mtype599.a(button-hal.o)
                0x000000000001a2ab                button_hal_get_by_id
                0x000000000001a2e9                button_hal_get_by_index
                0x000000000001a315                button_hal_get_state
                0x000000000001a367                button_hal_init
 .text          0x000000000001a54e      0x1f3 build/cooja/mtype599.a(serial-line.o)
                0x000000000001a54e                serial_line_input_byte
                0x000000000001a70c                serial_line_init
 .text          0x000000000001a741      0x168 build/cooja/mtype599.a(gpio-hal.o)
                0x000000000001a741                gpio_hal_register_handler
                0x000000000001a75e                gpio_hal_event_handler
                0x000000000001a7ba                gpio_hal_init
                0x000000000001a7d9                gpio_hal_arch_port_toggle_pin
                0x000000000001a815                gpio_hal_arch_port_toggle_pins
                0x000000000001a843                gpio_hal_arch_no_port_toggle_pin
                0x000000000001a881                gpio_hal_arch_no_port_toggle_pins
 .text          0x000000000001a8a9      0x2e7 build/cooja/mtype599.a(queuebuf.o)
                0x000000000001a8b3                queuebuf_init
                0x000000000001a8dc                queuebuf_numfree
                0x000000000001a8f4                queuebuf_new_from_packetbuf
                0x000000000001a993                queuebuf_update_attr_from_packetbuf
                0x000000000001a9c8                queuebuf_update_from_packetbuf
                0x000000000001aa18                queuebuf_free
                0x000000000001aa61                queuebuf_to_packetbuf
                0x000000000001aacd                queuebuf_dataptr
                0x000000000001ab07                queuebuf_datalen
                0x000000000001ab2a                queuebuf_addr
                0x000000000001ab5f                queuebuf_attr
                0x000000000001ab8a                queuebuf_debug_print
 .text          0x000000000001ab90      0x407 build/cooja/mtype599.a(packetbuf.o)
                0x000000000001ab90                packetbuf_clear
                0x000000000001abbb                packetbuf_copyfrom
                0x000000000001ac0a                packetbuf_copyto
                0x000000000001ac9d                packetbuf_hdralloc
                0x000000000001ad19                packetbuf_hdrreduce
                0x000000000001ad5f                packetbuf_set_datalen
                0x000000000001ad79                packetbuf_dataptr
                0x000000000001ad96                packetbuf_hdrptr
                0x000000000001ada0                packetbuf_datalen
                0x000000000001adac                packetbuf_hdrlen
                0x000000000001adc3                packetbuf_totlen
                0x000000000001add9                packetbuf_remaininglen
                0x000000000001adec                packetbuf_attr_clear
                0x000000000001ae38                packetbuf_attr_copyto
                0x000000000001ae90                packetbuf_attr_copyfrom
                0x000000000001aee8                packetbuf_set_attr
                0x000000000001af12                packetbuf_attr
                0x000000000001af2c                packetbuf_set_addr
                0x000000000001af5d                packetbuf_addr
                0x000000000001af7a                packetbuf_holds_broadcast
 .text          0x000000000001af97       0xef build/cooja/mtype599.a(netstack.o)
                0x000000000001af97                netstack_process_ip_callback
                0x000000000001b028                netstack_ip_packet_processor_add
                0x000000000001b04b                uip_ds6_ip_packet_processor_rm
                0x000000000001b068                netstack_init
 .text          0x000000000001b086       0x4f build/cooja/mtype599.a(linkaddr.o)
                0x000000000001b086                linkaddr_copy
                0x000000000001b09c                linkaddr_cmp
                0x000000000001b0bf                linkaddr_set_node_addr
 .text          0x000000000001b0d5      0x1f6 build/cooja/mtype599.a(csma.o)
 .text          0x000000000001b2cb      0x95d build/cooja/mtype599.a(csma-output.o)
                0x000000000001b962                csma_output_packet
                0x000000000001bbef                csma_output_init
 .text          0x000000000001bc28      0xc11 build/cooja/mtype599.a(uip-ds6.o)
                0x000000000001bc28                uip_ds6_default_prefix
                0x000000000001bc32                uip_ds6_set_default_prefix
                0x000000000001bc5d                uip_ds6_init
                0x000000000001bebf                uip_ds6_periodic
                0x000000000001bf46                uip_ds6_list_loop
                0x000000000001c006                uip_ds6_prefix_add
                0x000000000001c0b2                uip_ds6_prefix_rm
                0x000000000001c0c5                uip_ds6_prefix_lookup
                0x000000000001c104                uip_ds6_is_addr_onlink
                0x000000000001c177                uip_ds6_addr_add
                0x000000000001c297                uip_ds6_addr_rm
                0x000000000001c340                uip_ds6_addr_lookup
                0x000000000001c379                uip_ds6_get_link_local
                0x000000000001c3fa                uip_ds6_get_global
                0x000000000001c47b                uip_ds6_maddr_add
                0x000000000001c4db                uip_ds6_maddr_rm
                0x000000000001c4ee                uip_ds6_maddr_lookup
                0x000000000001c527                uip_ds6_aaddr_add
                0x000000000001c587                uip_ds6_aaddr_rm
                0x000000000001c59a                uip_ds6_aaddr_lookup
                0x000000000001c5d3                uip_ds6_select_src
                0x000000000001c71c                uip_ds6_set_addr_iid
                0x000000000001c747                uip_ds6_set_lladdr_from_iid
                0x000000000001c770                get_match_length
                0x000000000001c801                uip_ds6_compute_reachable_time
 .text          0x000000000001c839      0x128 build/cooja/mtype599.a(uip-udp-packet.)
                0x000000000001c839                uip_udp_packet_send
                0x000000000001c894                uip_udp_packet_sendto
 .text          0x000000000001c961      0x35b build/cooja/mtype599.a(uip-ds6-route.o)
                0x000000000001c9b2                uip_ds6_route_init
                0x000000000001c9dc                uip_ds6_route_nexthop
                0x000000000001c9e6                uip_ds6_route_head
                0x000000000001c9f0                uip_ds6_route_next
                0x000000000001c9fa                uip_ds6_route_is_nexthop
                0x000000000001ca04                uip_ds6_route_num_routes
                0x000000000001ca0e                uip_ds6_route_lookup
                0x000000000001ca18                uip_ds6_route_add
                0x000000000001ca2b                uip_ds6_route_rm
                0x000000000001ca31                uip_ds6_route_rm_by_nexthop
                0x000000000001ca37                uip_ds6_defrt_head
                0x000000000001ca50                uip_ds6_defrt_add
                0x000000000001cafe                uip_ds6_defrt_rm
                0x000000000001cb64                uip_ds6_defrt_lookup
                0x000000000001cbcb                uip_ds6_defrt_choose
                0x000000000001cc41                uip_ds6_defrt_periodic
 .text          0x000000000001ccbc      0x6f7 build/cooja/mtype599.a(tcpip.o)
                0x000000000001ccd6                tcpip_output
                0x000000000001cd55                udp_attach
                0x000000000001cd6d                udp_new
                0x000000000001cdb7                udp_broadcast_new
                0x000000000001cf29                tcpip_input
                0x000000000001d0b9                tcpip_ipv6_output
                0x000000000001d2ad                tcpip_poll_udp
                0x000000000001d2cb                tcpip_uipcall
 .text          0x000000000001d3b3     0x1205 build/cooja/mtype599.a(uip6.o)
                0x000000000001d462                uip_chksum
                0x000000000001d539                uip_icmp6chksum
                0x000000000001d54e                uip_udpchksum
                0x000000000001d563                uip_init
                0x000000000001d5ac                uip_remove_ext_hdr
                0x000000000001d686                uip_udp_new
                0x000000000001d99a                uip_process
                0x000000000001e492                uip_htons
                0x000000000001e4b4                uip_htonl
                0x000000000001e4f2                uip_send
 .text          0x000000000001e5b8      0x369 build/cooja/mtype599.a(uip-ds6-nbr.o)
                0x000000000001e5b8                uip_ds6_neighbors_init
                0x000000000001e5dc                uip_ds6_nbr_add
                0x000000000001e662                uip_ds6_nbr_rm
                0x000000000001e6ad                uip_ds6_nbr_update_ll
                0x000000000001e79b                uip_ds6_nbr_get_ipaddr
                0x000000000001e7b0                uip_ds6_nbr_get_ll
                0x000000000001e7cc                uip_ds6_nbr_num
                0x000000000001e815                uip_ds6_nbr_head
                0x000000000001e82e                uip_ds6_nbr_next
                0x000000000001e84a                uip_ds6_nbr_lookup
                0x000000000001e8a2                uip_ds6_nbr_ll_lookup
                0x000000000001e8be                uip_ds6_nbr_ipaddr_from_lladdr
                0x000000000001e8e7                uip_ds6_nbr_lladdr_from_ipaddr
                0x000000000001e91b                uip_ds6_link_callback
 .text          0x000000000001e921      0x6a7 build/cooja/mtype599.a(uip-nd6.o)
                0x000000000001efaf                uip_nd6_init
 .text          0x000000000001efc8      0x3b0 build/cooja/mtype599.a(simple-udp.o)
                0x000000000001eff5                simple_udp_send
                0x000000000001f058                simple_udp_sendto
                0x000000000001f0b3                simple_udp_sendto_port
                0x000000000001f10c                simple_udp_register
 .text          0x000000000001f378     0x2c17 build/cooja/mtype599.a(sicslowpan.o)
                0x000000000001f97f                netstack_sniffer_add
                0x000000000001f98d                netstack_sniffer_remove
                0x0000000000021f63                sicslowpan_init
                0x0000000000021f85                sicslowpan_get_last_rssi
 .text          0x0000000000021f8f      0x4d1 build/cooja/mtype599.a(uiplib.o)
                0x0000000000021f8f                uiplib_ip6addrconv
                0x0000000000022147                uiplib_ip4addrconv
                0x000000000002220a                uiplib_ipaddr_print
                0x000000000002225d                uiplib_ipaddr_snprint
 .text          0x0000000000022460      0x4c9 build/cooja/mtype599.a(rpl.o)
                0x0000000000022460                rpl_lollipop_greater_than
                0x00000000000224ba                rpl_get_global_address
                0x00000000000225b2                rpl_link_callback
                0x00000000000225f6                rpl_has_joined
                0x000000000002261b                rpl_is_reachable
                0x000000000002269c                rpl_reset_prefix
                0x0000000000022706                rpl_set_prefix_from_addr
                0x00000000000227eb                rpl_set_prefix
                0x0000000000022905                rpl_set_leaf_only
                0x000000000002291d                rpl_get_leaf_only
 .text          0x0000000000022929     0x138c build/cooja/mtype599.a(rpl-icmp6.o)
                0x0000000000022a4e                rpl_icmp6_update_nbr_table
                0x0000000000022ad7                rpl_icmp6_dis_output
                0x000000000002311d                rpl_icmp6_dio_output
                0x000000000002391b                rpl_icmp6_dao_output
                0x0000000000023bfc                rpl_icmp6_dao_ack_output
                0x0000000000023c6c                rpl_icmp6_init
 .text          0x0000000000023cb5      0x264 build/cooja/mtype599.a(rpl-dag-root.o)
                0x0000000000023cb5                rpl_dag_root_print_links
                0x0000000000023de1                rpl_dag_root_set_prefix
                0x0000000000023e0d                rpl_dag_root_start
                0x0000000000023eea                rpl_dag_root_is_root
 .text          0x0000000000023f19       0x30 build/cooja/mtype599.a(watchdog.o)
                0x0000000000023f19                watchdog_init
                0x0000000000023f1f                watchdog_start
                0x0000000000023f25                watchdog_periodic
                0x0000000000023f3d                watchdog_stop
                0x0000000000023f43                watchdog_reboot
 .text          0x0000000000023f49       0x4a build/cooja/mtype599.a(int-master.o)
                0x0000000000023f49                int_master_enable
                0x0000000000023f59                int_master_read_and_disable
                0x0000000000023f76                int_master_status_set
                0x0000000000023f84                int_master_is_enabled
 .text          0x0000000000023f93      0x226 build/cooja/mtype599.a(coap-timer-defa)
 .text          0x00000000000241b9       0xc7 build/cooja/mtype599.a(stimer.o)
                0x00000000000241b9                stimer_set
                0x00000000000241d7                stimer_reset
                0x0000000000024204                stimer_restart
                0x0000000000024219                stimer_expired
                0x0000000000024244                stimer_remaining
                0x0000000000024268                stimer_elapsed
 .text          0x0000000000024280      0x156 build/cooja/mtype599.a(ringbuf.o)
                0x0000000000024280                ringbuf_init
                0x00000000000242b2                ringbuf_put
                0x0000000000024330                ringbuf_get
                0x000000000002439d                ringbuf_size
                0x00000000000243af                ringbuf_elements
 .text          0x00000000000243d6       0x1f build/cooja/mtype599.a(assert.o)
                0x00000000000243d6                _xassert
 .text          0x00000000000243f5      0x79b build/cooja/mtype599.a(nbr-table.o)
                0x000000000002486e                nbr_table_register
                0x00000000000248db                nbr_table_is_registered
                0x0000000000024916                nbr_table_head
                0x0000000000024971                nbr_table_next
                0x00000000000249d2                nbr_table_add_lladdr
                0x0000000000024aac                nbr_table_get_from_lladdr
                0x0000000000024af8                nbr_table_remove
                0x0000000000024b30                nbr_table_lock
                0x0000000000024b4a                nbr_table_unlock
                0x0000000000024b64                nbr_table_get_lladdr
 .text          0x0000000000024b90      0x3a5 build/cooja/mtype599.a(link-stats.o)
                0x0000000000024b90                link_stats_from_lladdr
                0x0000000000024bac                link_stats_get_lladdr
                0x0000000000024bc8                link_stats_is_fresh
                0x0000000000024c04                guess_etx_from_rssi
                0x0000000000024c80                link_stats_packet_sent
                0x0000000000024da0                link_stats_input_callback
                0x0000000000024eb0                link_stats_reset
                0x0000000000024f00                link_stats_init
 .text          0x0000000000024f35      0x187 build/cooja/mtype599.a(mac-sequence.o)
                0x0000000000024f35                mac_sequence_is_duplicate
                0x0000000000024fd5                mac_sequence_register_seqno
 .text          0x00000000000250bc       0x23 build/cooja/mtype599.a(mac.o)
                0x00000000000250bc                mac_call_sent_callback
 .text          0x00000000000250df      0x432 build/cooja/mtype599.a(framer-802154.o)
                0x000000000002526e                framer_802154_setup_params
 .text          0x0000000000025511      0xb6f build/cooja/mtype599.a(frame802154.o)
                0x0000000000025542                frame802154_get_pan_id
                0x000000000002554e                frame802154_set_pan_id
                0x0000000000025568                frame802154_has_panid
                0x0000000000025717                frame802154_check_dest_panid
                0x000000000002579f                frame802154_is_broadcast_addr
                0x00000000000257ec                frame802154_extract_linkaddr
                0x0000000000025a51                frame802154_hdrlen
                0x0000000000025ac4                frame802154_create_fcf
                0x0000000000025b7c                frame802154_create
                0x0000000000025cf1                frame802154_parse_fcf
                0x0000000000025dd3                frame802154_parse
 .text          0x0000000000026080       0x2d build/cooja/mtype599.a(csma-security.o)
                0x0000000000026080                csma_security_create_frame
                0x000000000002609e                csma_security_parse_frame
 .text          0x00000000000260ad      0x4e4 build/cooja/mtype599.a(uipbuf.o)
                0x00000000000260ad                uipbuf_clear
                0x00000000000260d4                uipbuf_add_ext_hdr
                0x0000000000026154                uipbuf_set_len
                0x0000000000026181                uipbuf_set_len_field
                0x00000000000261ad                uipbuf_get_len_field
                0x00000000000261cd                uipbuf_get_next_header
                0x00000000000262ff                uipbuf_get_last_header
                0x0000000000026378                uipbuf_search_header
                0x000000000002642e                uipbuf_get_attr
                0x0000000000026455                uipbuf_set_attr
                0x000000000002648c                uipbuf_set_default_attr
                0x00000000000264c3                uipbuf_clear_attr
                0x00000000000264e7                uipbuf_set_attr_flag
                0x0000000000026508                uipbuf_clr_attr_flag
                0x000000000002652f                uipbuf_is_attr_flag
                0x0000000000026553                uipbuf_init
 .text          0x0000000000026591      0x73f build/cooja/mtype599.a(uip-icmp6.o)
                0x0000000000026606                uip_icmp6_input
                0x000000000002665d                uip_icmp6_register_input_handler
                0x00000000000267b0                uip_icmp6_error_output
                0x0000000000026a61                uip_icmp6_send
                0x0000000000026c58                uip_icmp6_echo_reply_callback_add
                0x0000000000026c8a                uip_icmp6_echo_reply_callback_rm
                0x0000000000026ca7                uip_icmp6_init
 .text          0x0000000000026cd0      0x69b build/cooja/mtype599.a(uip-sr.o)
                0x0000000000026cd0                uip_sr_num_nodes
                0x0000000000026d5e                uip_sr_get_node
                0x0000000000026db5                uip_sr_is_addr_reachable
                0x0000000000026e63                uip_sr_expire_parent
                0x0000000000026eac                uip_sr_update_node
                0x0000000000026fdc                uip_sr_init
                0x0000000000027010                uip_sr_node_head
                0x0000000000027029                uip_sr_node_next
                0x000000000002703f                uip_sr_periodic
                0x0000000000027145                uip_sr_free_all
                0x00000000000271b5                uip_sr_link_snprint
 .text          0x000000000002736b      0x146 build/cooja/mtype599.a(uip-packetqueue)
                0x0000000000027399                uip_packetqueue_new
                0x00000000000273a8                uip_packetqueue_alloc
                0x0000000000027403                uip_packetqueue_free
                0x000000000002744a                uip_packetqueue_buf
                0x0000000000027467                uip_packetqueue_buflen
                0x0000000000027488                uip_packetqueue_set_buflen
 .text          0x00000000000274b1      0x1b0 build/cooja/mtype599.a(rpl-nbr-policy.)
                0x000000000002761e                rpl_nbr_policy_find_removable
 .text          0x0000000000027661      0x915 build/cooja/mtype599.a(rpl-neighbor.o)
                0x00000000000276dd                rpl_neighbor_snprint
                0x0000000000027990                rpl_neighbor_print_list
                0x0000000000027a45                rpl_neighbor_count
                0x0000000000027aec                rpl_neighbor_get_from_lladdr
                0x0000000000027b08                rpl_neighbor_is_acceptable_parent
                0x0000000000027b3c                rpl_neighbor_get_link_metric
                0x0000000000027b70                rpl_neighbor_rank_via_nbr
                0x0000000000027ba4                rpl_neighbor_get_lladdr
                0x0000000000027bc0                rpl_neighbor_get_ipaddr
                0x0000000000027be7                rpl_neighbor_get_link_stats
                0x0000000000027c0e                rpl_neighbor_is_fresh
                0x0000000000027c35                rpl_neighbor_is_reachable
                0x0000000000027c80                rpl_neighbor_is_parent
                0x0000000000027caa                rpl_neighbor_set_preferred_parent
                0x0000000000027d41                rpl_neighbor_remove_all
                0x0000000000027d9d                rpl_neighbor_get_from_ipaddr
                0x0000000000027eab                rpl_neighbor_select_best
                0x0000000000027f57                rpl_neighbor_init
 .text          0x0000000000027f76      0xe69 build/cooja/mtype599.a(rpl-dag.o)
                0x0000000000027f76                rpl_dag_state_to_str
                0x0000000000027fb5                rpl_dag_get_root_ipaddr
                0x0000000000027ffd                rpl_dag_leave
                0x0000000000028086                rpl_dag_poison_and_leave
                0x000000000002809e                rpl_dag_periodic
                0x0000000000028126                rpl_is_addr_in_our_dag
                0x000000000002816a                rpl_get_default_instance
                0x0000000000028186                rpl_get_any_dag
                0x00000000000281df                rpl_refresh_routes
                0x000000000002821f                rpl_global_repair
                0x00000000000282b8                rpl_local_repair
                0x0000000000028302                rpl_dag_ready_to_advertise
                0x0000000000028345                rpl_dag_update_state
                0x0000000000028a72                rpl_process_dio
                0x0000000000028af0                rpl_process_dis
                0x0000000000028b35                rpl_process_dao
                0x0000000000028bc4                rpl_process_dao_ack
                0x0000000000028c5b                rpl_process_hbh
                0x0000000000028cab                rpl_dag_init_root
                0x0000000000028dbf                rpl_dag_init
 .text          0x0000000000028ddf      0x9e7 build/cooja/mtype599.a(rpl-timers.o)
                0x0000000000028ddf                rpl_timers_schedule_periodic_dis
                0x0000000000028f2d                rpl_timers_dio_reset
                0x000000000002903b                rpl_timers_schedule_unicast_dio
                0x000000000002918f                rpl_timers_schedule_dao
                0x000000000002924e                rpl_timers_schedule_dao_ack
                0x00000000000292d4                rpl_timers_notify_dao_ack
                0x0000000000029332                get_probing_delay
                0x0000000000029366                get_probing_target
                0x0000000000029550                rpl_schedule_probing
                0x000000000002957e                rpl_schedule_probing_now
                0x00000000000295e8                rpl_timers_unschedule_leaving
                0x0000000000029620                rpl_timers_schedule_leaving
                0x0000000000029661                rpl_timers_init
                0x00000000000296f1                rpl_timers_stop_dag_timers
                0x000000000002976a                rpl_timers_unschedule_state_update
                0x000000000002978e                rpl_timers_schedule_state_update
 .text          0x00000000000297c6      0xb8e build/cooja/mtype599.a(rpl-ext-header.)
                0x00000000000297c6                rpl_ext_header_srh_get_next_hop
                0x00000000000298ad                rpl_ext_header_srh_update
                0x0000000000029e19                rpl_ext_header_hbh_update
                0x000000000002a119                rpl_ext_header_update
                0x000000000002a1a2                rpl_ext_header_remove
 .text          0x000000000002a354      0x31b build/cooja/mtype599.a(rpl-mrhof.o)
 *fill*         0x000000000002a66f        0x1 
 .text          0x000000000002a670      0x122 /usr/lib/gcc/i686-linux-gnu/5/libgcc.a(_udivdi3.o)
                0x000000000002a670                __udivdi3
 .text          0x000000000002a792        0x0 /usr/lib/gcc/i686-linux-gnu/5/crtendS.o
 .text          0x000000000002a792        0x0 /usr/lib/gcc/i686-linux-gnu/5/../../../i386-linux-gnu/crtn.o
 *(.gnu.warning)

.fini           0x000000000002a794       0x14
 *(SORT(.fini))
 .fini          0x000000000002a794        0xf /usr/lib/gcc/i686-linux-gnu/5/../../../i386-linux-gnu/crti.o
                0x000000000002a794                _fini
 .fini          0x000000000002a7a3        0x5 /usr/lib/gcc/i686-linux-gnu/5/../../../i386-linux-gnu/crtn.o
                [!provide]                        PROVIDE (__etext, .)
                [!provide]                        PROVIDE (_etext, .)
                [!provide]                        PROVIDE (etext, .)

.rodata         0x000000000002a7c0      0xbab
 *(.rodata .rodata.* .gnu.linkonce.r.*)
 .rodata        0x000000000002a7c0      0x1ae temperature.o
                0x000000000002a7e4                autostart_processes
 *fill*         0x000000000002a96e        0x2 
 .rodata        0x000000000002a970        0x8 build/cooja/mtype599.a(beep.o)
                0x000000000002a970                beep_interface
 .rodata        0x000000000002a978        0xe build/cooja/mtype599.a(leds-arch.o)
                0x000000000002a978                leds_interface
                0x000000000002a980                leds_arch_leds
 *fill*         0x000000000002a986        0x2 
 .rodata        0x000000000002a988        0x8 build/cooja/mtype599.a(moteid.o)
                0x000000000002a988                moteid_interface
 .rodata        0x000000000002a990       0x1c build/cooja/mtype599.a(pir-sensor.o)
                0x000000000002a990                pir_interface
                0x000000000002a99c                pir_sensor
 .rodata        0x000000000002a9ac        0xe build/cooja/mtype599.a(rs232.o)
                0x000000000002a9ac                rs232_interface
 *fill*         0x000000000002a9ba        0x2 
 .rodata        0x000000000002a9bc       0x24 build/cooja/mtype599.a(vib-sensor.o)
                0x000000000002a9bc                vib_interface
                0x000000000002a9d0                vib_sensor
 .rodata        0x000000000002a9e0        0x8 build/cooja/mtype599.a(clock.o)
                0x000000000002a9e0                clock_interface
 .rodata        0x000000000002a9e8        0x8 build/cooja/mtype599.a(cooja-log.o)
                0x000000000002a9e8                simlog_interface
 .rodata        0x000000000002a9f0       0x2f build/cooja/mtype599.a(cfs-cooja.o)
                0x000000000002a9f0                cfs_interface
 *fill*         0x000000000002aa1f        0x1 
 .rodata        0x000000000002aa20       0xb8 build/cooja/mtype599.a(cooja-radio.o)
                0x000000000002aa20                radio_interface
                0x000000000002aaa0                cooja_radio_driver
 .rodata        0x000000000002aad8        0x8 build/cooja/mtype599.a(eeprom.o)
                0x000000000002aad8                eeprom_interface
 .rodata        0x000000000002aae0        0x8 build/cooja/mtype599.a(sensors.o)
 .rodata        0x000000000002aae8       0x2c build/cooja/mtype599.a(buttons.o)
                0x000000000002aae8                button_interface
                0x000000000002aafc                button_hal_button_count
                0x000000000002ab04                button_sensor
 .rodata        0x000000000002ab14       0x90 build/cooja/mtype599.a(res_temperature)
 .rodata        0x000000000002aba4       0x41 build/cooja/mtype599.a(coap-engine.o)
 .rodata        0x000000000002abe5       0x19 build/cooja/mtype599.a(coap-res-well-k)
 .rodata        0x000000000002abfe       0x11 build/cooja/mtype599.a(coap-observe.o)
 .rodata        0x000000000002ac0f       0x35 build/cooja/mtype599.a(coap-uip.o)
 .rodata        0x000000000002ac44      0x1ac build/cooja/mtype599.a(coap.o)
 .rodata        0x000000000002adf0       0xf4 build/cooja/mtype599.a(contiki-main.o)
 .rodata        0x000000000002aee4        0xf build/cooja/mtype599.a(ctimer.o)
 *fill*         0x000000000002aef3        0x1 
 .rodata        0x000000000002aef4       0xc4 build/cooja/mtype599.a(log.o)
 .rodata        0x000000000002afb8        0xc build/cooja/mtype599.a(etimer.o)
 .rodata        0x000000000002afc4       0x13 build/cooja/mtype599.a(button-hal.o)
 .rodata        0x000000000002afd7        0xe build/cooja/mtype599.a(serial-line.o)
 *fill*         0x000000000002afe5        0x3 
 .rodata        0x000000000002afe8        0x8 build/cooja/mtype599.a(linkaddr.o)
                0x000000000002afe8                linkaddr_null
 .rodata        0x000000000002aff0       0x24 build/cooja/mtype599.a(csma.o)
                0x000000000002aff8                csma_driver
 .rodata        0x000000000002b014       0x2a build/cooja/mtype599.a(csma-output.o)
 *fill*         0x000000000002b03e        0x2 
 .rodata        0x000000000002b040       0x4d build/cooja/mtype599.a(uip-ds6-route.o)
 .rodata        0x000000000002b08d        0xd build/cooja/mtype599.a(tcpip.o)
 .rodata        0x000000000002b09a       0x13 build/cooja/mtype599.a(simple-udp.o)
 *fill*         0x000000000002b0ad        0x3 
 .rodata        0x000000000002b0b0       0x30 build/cooja/mtype599.a(sicslowpan.o)
                0x000000000002b0b0                unc_llconf
                0x000000000002b0b4                unc_ctxconf
                0x000000000002b0b8                unc_mxconf
                0x000000000002b0bc                llprefix
                0x000000000002b0d0                sicslowpan_driver
 .rodata        0x000000000002b0e0       0x2d build/cooja/mtype599.a(uiplib.o)
 *fill*         0x000000000002b10d       0x13 
 .rodata        0x000000000002b120       0x74 build/cooja/mtype599.a(rpl.o)
                0x000000000002b140                rpl_lite_driver
 .rodata        0x000000000002b194       0x20 build/cooja/mtype599.a(coap-timer-defa)
                0x000000000002b1a8                coap_timer_default_driver
 .rodata        0x000000000002b1b4       0x25 build/cooja/mtype599.a(assert.o)
 *fill*         0x000000000002b1d9        0x3 
 .rodata        0x000000000002b1dc        0xc build/cooja/mtype599.a(framer-802154.o)
                0x000000000002b1dc                framer_802154
 .rodata        0x000000000002b1e8       0x44 build/cooja/mtype599.a(uip-sr.o)
 .rodata        0x000000000002b22c       0x58 build/cooja/mtype599.a(rpl-neighbor.o)
 .rodata        0x000000000002b284       0xdb build/cooja/mtype599.a(rpl-dag.o)
 .rodata        0x000000000002b35f        0xc build/cooja/mtype599.a(rpl-timers.o)

.rodata1
 *(.rodata1)

.eh_frame_hdr   0x000000000002b36c     0x1a2c
 *(.eh_frame_hdr)
 .eh_frame_hdr  0x000000000002b36c     0x1a2c temperature.o
                0x000000000002b36c                __GNU_EH_FRAME_HDR
 *(.eh_frame_entry .eh_frame_entry.*)

.eh_frame       0x000000000002cd98     0x6a54
 *(.eh_frame)
 .eh_frame      0x000000000002cd98       0x3c /usr/lib/gcc/i686-linux-gnu/5/../../../i386-linux-gnu/crti.o
                                         0x40 (size before relaxing)
 .eh_frame      0x000000000002cdd4       0xa0 temperature.o
                                         0xb8 (size before relaxing)
 .eh_frame      0x000000000002ce74      0x178 build/cooja/mtype599.o
                                        0x190 (size before relaxing)
 .eh_frame      0x000000000002cfec       0x40 build/cooja/mtype599.a(simEnvChange.o)
                                         0x58 (size before relaxing)
 .eh_frame      0x000000000002d02c       0x60 build/cooja/mtype599.a(cooja_mt.o)
                                         0x78 (size before relaxing)
 .eh_frame      0x000000000002d08c       0x80 build/cooja/mtype599.a(cooja_mtarch.o)
                                         0x98 (size before relaxing)
 .eh_frame      0x000000000002d10c       0xc8 build/cooja/mtype599.a(rtimer-arch.o)
                                         0xe0 (size before relaxing)
 .eh_frame      0x000000000002d1d4      0x160 build/cooja/mtype599.a(beep.o)
                                        0x178 (size before relaxing)
 .eh_frame      0x000000000002d334       0x80 build/cooja/mtype599.a(leds-arch.o)
                                         0x98 (size before relaxing)
 .eh_frame      0x000000000002d3b4       0x40 build/cooja/mtype599.a(moteid.o)
                                         0x58 (size before relaxing)
 .eh_frame      0x000000000002d3f4       0xa0 build/cooja/mtype599.a(pir-sensor.o)
                                         0xb8 (size before relaxing)
 .eh_frame      0x000000000002d494      0x100 build/cooja/mtype599.a(rs232.o)
                                        0x118 (size before relaxing)
 .eh_frame      0x000000000002d594       0xa0 build/cooja/mtype599.a(vib-sensor.o)
                                         0xb8 (size before relaxing)
 .eh_frame      0x000000000002d634       0xc0 build/cooja/mtype599.a(clock.o)
                                         0xd8 (size before relaxing)
 .eh_frame      0x000000000002d6f4      0x120 build/cooja/mtype599.a(cooja-log.o)
                                        0x138 (size before relaxing)
 .eh_frame      0x000000000002d814      0x160 build/cooja/mtype599.a(cfs-cooja.o)
                                        0x178 (size before relaxing)
 .eh_frame      0x000000000002d974      0x340 build/cooja/mtype599.a(cooja-radio.o)
                                        0x358 (size before relaxing)
 .eh_frame      0x000000000002dcb4       0xa0 build/cooja/mtype599.a(eeprom.o)
                                         0xb8 (size before relaxing)
 .eh_frame      0x000000000002dd54       0x40 build/cooja/mtype599.a(random.o)
                                         0x58 (size before relaxing)
 .eh_frame      0x000000000002dd94       0xc0 build/cooja/mtype599.a(sensors.o)
                                         0xd8 (size before relaxing)
 .eh_frame      0x000000000002de54      0x120 build/cooja/mtype599.a(leds.o)
                                        0x138 (size before relaxing)
 .eh_frame      0x000000000002df74      0x220 build/cooja/mtype599.a(gpio-hal-arch.o)
                                        0x238 (size before relaxing)
 .eh_frame      0x000000000002e194       0xa0 build/cooja/mtype599.a(buttons.o)
                                         0xb8 (size before relaxing)
 .eh_frame      0x000000000002e234       0x98 build/cooja/mtype599.a(res_temperature)
                                         0xb0 (size before relaxing)
 .eh_frame      0x000000000002e2cc       0x44 build/cooja/mtype599.a(coap-blocking-a)
                                         0x5c (size before relaxing)
 .eh_frame      0x000000000002e310      0x220 build/cooja/mtype599.a(coap-engine.o)
                                        0x238 (size before relaxing)
 .eh_frame      0x000000000002e530       0x24 build/cooja/mtype599.a(coap-res-well-k)
                                         0x3c (size before relaxing)
 .eh_frame      0x000000000002e554      0x188 build/cooja/mtype599.a(coap-observe.o)
                                        0x1a0 (size before relaxing)
 .eh_frame      0x000000000002e6dc      0x250 build/cooja/mtype599.a(coap-uip.o)
                                        0x268 (size before relaxing)
 .eh_frame      0x000000000002e92c      0x114 build/cooja/mtype599.a(coap-timer.o)
                                        0x12c (size before relaxing)
 .eh_frame      0x000000000002ea40      0x100 build/cooja/mtype599.a(coap-transactio)
                                        0x118 (size before relaxing)
 .eh_frame      0x000000000002eb40      0x6ec build/cooja/mtype599.a(coap.o)
                                        0x704 (size before relaxing)
 .eh_frame      0x000000000002f22c       0x30 build/cooja/mtype599.a(contiki-main.o)
                                         0x48 (size before relaxing)
 .eh_frame      0x000000000002f25c       0x40 build/cooja/mtype599.a(autostart.o)
                                         0x58 (size before relaxing)
 .eh_frame      0x000000000002f29c      0x100 build/cooja/mtype599.a(ctimer.o)
                                        0x118 (size before relaxing)
 .eh_frame      0x000000000002f39c      0x100 build/cooja/mtype599.a(log.o)
                                        0x118 (size before relaxing)
 .eh_frame      0x000000000002f49c       0x60 build/cooja/mtype599.a(energest.o)
                                         0x78 (size before relaxing)
 .eh_frame      0x000000000002f4fc      0x1e0 build/cooja/mtype599.a(etimer.o)
                                        0x1f8 (size before relaxing)
 .eh_frame      0x000000000002f6dc       0x20 build/cooja/mtype599.a(node-id.o)
                                         0x38 (size before relaxing)
 .eh_frame      0x000000000002f6fc       0x60 build/cooja/mtype599.a(rtimer.o)
                                         0x78 (size before relaxing)
 .eh_frame      0x000000000002f75c      0x1c4 build/cooja/mtype599.a(process.o)
                                        0x1dc (size before relaxing)
 .eh_frame      0x000000000002f920       0xa4 build/cooja/mtype599.a(timer.o)
                                         0xbc (size before relaxing)
 .eh_frame      0x000000000002f9c4      0x1a0 build/cooja/mtype599.a(list.o)
                                        0x1b8 (size before relaxing)
 .eh_frame      0x000000000002fb64       0xa0 build/cooja/mtype599.a(memb.o)
                                         0xb8 (size before relaxing)
 .eh_frame      0x000000000002fc04      0x144 build/cooja/mtype599.a(button-hal.o)
                                        0x15c (size before relaxing)
 .eh_frame      0x000000000002fd48       0x60 build/cooja/mtype599.a(serial-line.o)
                                         0x78 (size before relaxing)
 .eh_frame      0x000000000002fda8       0xe0 build/cooja/mtype599.a(gpio-hal.o)
                                         0xf8 (size before relaxing)
 .eh_frame      0x000000000002fe88      0x1a0 build/cooja/mtype599.a(queuebuf.o)
                                        0x1b8 (size before relaxing)
 .eh_frame      0x0000000000030028      0x28c build/cooja/mtype599.a(packetbuf.o)
                                        0x2a4 (size before relaxing)
 .eh_frame      0x00000000000302b4       0x80 build/cooja/mtype599.a(netstack.o)
                                         0x98 (size before relaxing)
 .eh_frame      0x0000000000030334       0x60 build/cooja/mtype599.a(linkaddr.o)
                                         0x78 (size before relaxing)
 .eh_frame      0x0000000000030394       0xe0 build/cooja/mtype599.a(csma.o)
                                         0xf8 (size before relaxing)
 .eh_frame      0x0000000000030474      0x1d0 build/cooja/mtype599.a(csma-output.o)
                                        0x1e8 (size before relaxing)
 .eh_frame      0x0000000000030644      0x328 build/cooja/mtype599.a(uip-ds6.o)
                                        0x340 (size before relaxing)
 .eh_frame      0x000000000003096c       0x40 build/cooja/mtype599.a(uip-udp-packet.)
                                         0x58 (size before relaxing)
 .eh_frame      0x00000000000309ac      0x220 build/cooja/mtype599.a(uip-ds6-route.o)
                                        0x238 (size before relaxing)
 .eh_frame      0x0000000000030bcc      0x244 build/cooja/mtype599.a(tcpip.o)
                                        0x25c (size before relaxing)
 .eh_frame      0x0000000000030e10      0x1e8 build/cooja/mtype599.a(uip6.o)
                                        0x200 (size before relaxing)
 .eh_frame      0x0000000000030ff8      0x1c0 build/cooja/mtype599.a(uip-ds6-nbr.o)
                                        0x1d8 (size before relaxing)
 .eh_frame      0x00000000000311b8       0x84 build/cooja/mtype599.a(uip-nd6.o)
                                         0x9c (size before relaxing)
 .eh_frame      0x000000000003123c       0xd4 build/cooja/mtype599.a(simple-udp.o)
                                         0xec (size before relaxing)
 .eh_frame      0x0000000000031310      0x2f8 build/cooja/mtype599.a(sicslowpan.o)
                                        0x310 (size before relaxing)
 .eh_frame      0x0000000000031608       0x88 build/cooja/mtype599.a(uiplib.o)
                                         0xa0 (size before relaxing)
 .eh_frame      0x0000000000031690      0x1e0 build/cooja/mtype599.a(rpl.o)
                                        0x1f8 (size before relaxing)
 .eh_frame      0x0000000000031870      0x1c4 build/cooja/mtype599.a(rpl-icmp6.o)
                                        0x1dc (size before relaxing)
 .eh_frame      0x0000000000031a34       0xa0 build/cooja/mtype599.a(rpl-dag-root.o)
                                         0xb8 (size before relaxing)
 .eh_frame      0x0000000000031ad4       0xa0 build/cooja/mtype599.a(watchdog.o)
                                         0xb8 (size before relaxing)
 .eh_frame      0x0000000000031b74       0x80 build/cooja/mtype599.a(int-master.o)
                                         0x98 (size before relaxing)
 .eh_frame      0x0000000000031bf4       0xa4 build/cooja/mtype599.a(coap-timer-defa)
                                         0xbc (size before relaxing)
 .eh_frame      0x0000000000031c98       0xc4 build/cooja/mtype599.a(stimer.o)
                                         0xdc (size before relaxing)
 .eh_frame      0x0000000000031d5c       0xa0 build/cooja/mtype599.a(ringbuf.o)
                                         0xb8 (size before relaxing)
 .eh_frame      0x0000000000031dfc       0x20 build/cooja/mtype599.a(assert.o)
                                         0x38 (size before relaxing)
 .eh_frame      0x0000000000031e1c      0x2ac build/cooja/mtype599.a(nbr-table.o)
                                        0x2c4 (size before relaxing)
 .eh_frame      0x00000000000320c8      0x120 build/cooja/mtype599.a(link-stats.o)
                                        0x138 (size before relaxing)
 .eh_frame      0x00000000000321e8       0x48 build/cooja/mtype599.a(mac-sequence.o)
                                         0x60 (size before relaxing)
 .eh_frame      0x0000000000032230       0x20 build/cooja/mtype599.a(mac.o)
                                         0x38 (size before relaxing)
 .eh_frame      0x0000000000032250       0xa4 build/cooja/mtype599.a(framer-802154.o)
                                         0xbc (size before relaxing)
 .eh_frame      0x00000000000322f4      0x1a4 build/cooja/mtype599.a(frame802154.o)
                                        0x1bc (size before relaxing)
 .eh_frame      0x0000000000032498       0x40 build/cooja/mtype599.a(csma-security.o)
                                         0x58 (size before relaxing)
 .eh_frame      0x00000000000324d8      0x200 build/cooja/mtype599.a(uipbuf.o)
                                        0x218 (size before relaxing)
 .eh_frame      0x00000000000326d8      0x150 build/cooja/mtype599.a(uip-icmp6.o)
                                        0x168 (size before relaxing)
 .eh_frame      0x0000000000032828      0x184 build/cooja/mtype599.a(uip-sr.o)
                                        0x19c (size before relaxing)
 .eh_frame      0x00000000000329ac       0xe0 build/cooja/mtype599.a(uip-packetqueue)
                                         0xf8 (size before relaxing)
 .eh_frame      0x0000000000032a8c       0x80 build/cooja/mtype599.a(rpl-nbr-policy.)
                                         0x98 (size before relaxing)
 .eh_frame      0x0000000000032b0c      0x2d4 build/cooja/mtype599.a(rpl-neighbor.o)
                                        0x2ec (size before relaxing)
 .eh_frame      0x0000000000032de0      0x370 build/cooja/mtype599.a(rpl-dag.o)
                                        0x388 (size before relaxing)
 .eh_frame      0x0000000000033150      0x3a8 build/cooja/mtype599.a(rpl-timers.o)
                                        0x3c0 (size before relaxing)
 .eh_frame      0x00000000000334f8      0x124 build/cooja/mtype599.a(rpl-ext-header.)
                                        0x13c (size before relaxing)
 .eh_frame      0x000000000003361c      0x148 build/cooja/mtype599.a(rpl-mrhof.o)
                                        0x160 (size before relaxing)
 .eh_frame      0x0000000000033764       0x84 /usr/lib/gcc/i686-linux-gnu/5/libgcc.a(_udivdi3.o)
                                         0x9c (size before relaxing)
 .eh_frame      0x00000000000337e8        0x4 /usr/lib/gcc/i686-linux-gnu/5/crtendS.o
 *(.eh_frame.*)

.gcc_except_table
 *(.gcc_except_table .gcc_except_table.*)

.gnu_extab
 *(.gnu_extab*)

.exception_ranges
 *(.exception_ranges .exception_ranges*)
                0x0000000000034f10                . = DATA_SEGMENT_ALIGN (0x1000, 0x1000)

.eh_frame
 *(.eh_frame)
 *(.eh_frame.*)

.gnu_extab
 *(.gnu_extab)

.gcc_except_table
 *(.gcc_except_table .gcc_except_table.*)

.exception_ranges
 *(.exception_ranges .exception_ranges*)

.tdata
 *(.tdata .tdata.* .gnu.linkonce.td.*)

.tbss
 *(.tbss .tbss.* .gnu.linkonce.tb.*)
 *(.tcommon)

.preinit_array
 *(.preinit_array)

.init_array     0x0000000000034f10        0x4
 *(SORT(.init_array.*) SORT(.ctors.*))
 *(.init_array EXCLUDE_FILE(*crtend?.o *crtend.o *crtbegin?.o *crtbegin.o) .ctors)
 .init_array    0x0000000000034f10        0x4 /usr/lib/gcc/i686-linux-gnu/5/crtbeginS.o

.fini_array     0x0000000000034f14        0x4
 *(SORT(.fini_array.*) SORT(.dtors.*))
 *(.fini_array EXCLUDE_FILE(*crtend?.o *crtend.o *crtbegin?.o *crtbegin.o) .dtors)
 .fini_array    0x0000000000034f14        0x4 /usr/lib/gcc/i686-linux-gnu/5/crtbeginS.o

.ctors
 *crtbegin.o(.ctors)
 *crtbegin?.o(.ctors)
 *(EXCLUDE_FILE(*crtend?.o *crtend.o) .ctors)
 *(SORT(.ctors.*))
 *(.ctors)

.dtors
 *crtbegin.o(.dtors)
 *crtbegin?.o(.dtors)
 *(EXCLUDE_FILE(*crtend?.o *crtend.o) .dtors)
 *(SORT(.dtors.*))
 *(.dtors)

.jcr            0x0000000000034f18        0x4
 *(.jcr)
 .jcr           0x0000000000034f18        0x0 /usr/lib/gcc/i686-linux-gnu/5/crtbeginS.o
 .jcr           0x0000000000034f18        0x4 /usr/lib/gcc/i686-linux-gnu/5/crtendS.o

.data.rel.ro
 *(.data.rel.ro.local* .gnu.linkonce.d.rel.ro.local.*)
 *(.data.rel.ro .data.rel.ro.* .gnu.linkonce.d.rel.ro.*)

.dynamic        0x0000000000034f1c       0xd0
 *(.dynamic)
 .dynamic       0x0000000000034f1c       0xd0 /usr/lib/gcc/i686-linux-gnu/5/../../../i386-linux-gnu/crti.o
                0x0000000000034f1c                _DYNAMIC

.got            0x0000000000034fec       0x14
 *(.got)
 .got           0x0000000000034fec       0x14 /usr/lib/gcc/i686-linux-gnu/5/../../../i386-linux-gnu/crti.o
 *(.igot)
                0x0000000000035ff4                . = DATA_SEGMENT_RELRO_END (., (SIZEOF (.got.plt) >= 0xc)?0xc:0x0)

.got.plt        0x0000000000035000        0xc
 *(.got.plt)
 .got.plt       0x0000000000035000        0xc /usr/lib/gcc/i686-linux-gnu/5/../../../i386-linux-gnu/crti.o
                0x0000000000035000                _GLOBAL_OFFSET_TABLE_
 *(.igot.plt)

.data           0x0000000000035020      0x484
 *(.data .data.* .gnu.linkonce.d.*)
 .data          0x0000000000035020        0x0 /usr/lib/gcc/i686-linux-gnu/5/../../../i386-linux-gnu/crti.o
 .data          0x0000000000035020        0x0 /usr/lib/gcc/i686-linux-gnu/5/crtbeginS.o
 .data.rel.local
                0x0000000000035020        0x4 /usr/lib/gcc/i686-linux-gnu/5/crtbeginS.o
                0x0000000000035020                __dso_handle
 .data          0x0000000000035024       0x30 temperature.o
                0x0000000000035024                udp_client
                0x0000000000035034                coap_client
                0x0000000000035044                coap_server
 *fill*         0x0000000000035054        0xc 
 .data          0x0000000000035060       0x44 build/cooja/mtype599.o
                0x0000000000035060                simInterfaces
                0x0000000000035094                sensors
 .data          0x00000000000350a4        0x0 build/cooja/mtype599.a(simEnvChange.o)
 .data          0x00000000000350a4        0x0 build/cooja/mtype599.a(cooja_mt.o)
 .data          0x00000000000350a4        0x0 build/cooja/mtype599.a(cooja_mtarch.o)
 .data          0x00000000000350a4        0x0 build/cooja/mtype599.a(rtimer-arch.o)
 .data          0x00000000000350a4        0x0 build/cooja/mtype599.a(beep.o)
 .data          0x00000000000350a4        0x0 build/cooja/mtype599.a(leds-arch.o)
 .data          0x00000000000350a4        0x0 build/cooja/mtype599.a(moteid.o)
 .data          0x00000000000350a4        0x0 build/cooja/mtype599.a(pir-sensor.o)
 .data          0x00000000000350a4        0x0 build/cooja/mtype599.a(rs232.o)
 .data          0x00000000000350a4        0x0 build/cooja/mtype599.a(vib-sensor.o)
 .data          0x00000000000350a4        0x0 build/cooja/mtype599.a(clock.o)
 .data          0x00000000000350a4        0x0 build/cooja/mtype599.a(cooja-log.o)
 .data          0x00000000000350a4        0x0 build/cooja/mtype599.a(cfs-cooja.o)
 .data          0x00000000000350a4       0x2c build/cooja/mtype599.a(cooja-radio.o)
                0x00000000000350a4                simRadioHWOn
                0x00000000000350a8                simSignalStrength
                0x00000000000350ac                simLastSignalStrength
                0x00000000000350b0                simPower
                0x00000000000350b4                simRadioChannel
                0x00000000000350b8                simLQI
                0x00000000000350c0                cooja_radio_process
 .data          0x00000000000350d0        0x0 build/cooja/mtype599.a(eeprom.o)
 .data          0x00000000000350d0        0x0 build/cooja/mtype599.a(random.o)
 .data          0x00000000000350d0       0x10 build/cooja/mtype599.a(sensors.o)
                0x00000000000350d0                sensors_process
 .data          0x00000000000350e0        0x0 build/cooja/mtype599.a(leds.o)
 .data          0x00000000000350e0        0x0 build/cooja/mtype599.a(gpio-hal-arch.o)
 .data          0x00000000000350e0       0x78 build/cooja/mtype599.a(buttons.o)
                0x00000000000350e0                simButtonIsActive
                0x0000000000035150                button_hal_buttons
 *fill*         0x0000000000035158        0x8 
 .data          0x0000000000035160       0x44 build/cooja/mtype599.a(res_temperature)
                0x0000000000035180                res_temperature
 .data          0x00000000000351a4        0x0 build/cooja/mtype599.a(coap-blocking-a)
 .data          0x00000000000351a4        0x8 build/cooja/mtype599.a(coap-engine.o)
 *fill*         0x00000000000351ac       0x14 
 .data          0x00000000000351c0       0x24 build/cooja/mtype599.a(coap-res-well-k)
                0x00000000000351c0                res_well_known_core
 .data          0x00000000000351e4       0x10 build/cooja/mtype599.a(coap-observe.o)
 .data          0x00000000000351f4       0x10 build/cooja/mtype599.a(coap-uip.o)
                0x00000000000351f4                coap_engine
 .data          0x0000000000035204        0x4 build/cooja/mtype599.a(coap-timer.o)
 .data          0x0000000000035208       0x10 build/cooja/mtype599.a(coap-transactio)
 .data          0x0000000000035218        0x4 build/cooja/mtype599.a(coap.o)
                0x0000000000035218                coap_error_message
 .data          0x000000000003521c        0x0 build/cooja/mtype599.a(contiki-main.o)
 .data          0x000000000003521c        0x0 build/cooja/mtype599.a(autostart.o)
 .data          0x000000000003521c       0x14 build/cooja/mtype599.a(ctimer.o)
                0x0000000000035220                ctimer_process
 *fill*         0x0000000000035230       0x10 
 .data          0x0000000000035240       0xbc build/cooja/mtype599.a(log.o)
                0x0000000000035240                curr_log_level_main
                0x0000000000035260                all_modules
 .data          0x00000000000352fc        0x0 build/cooja/mtype599.a(energest.o)
 .data          0x00000000000352fc       0x10 build/cooja/mtype599.a(etimer.o)
                0x00000000000352fc                etimer_process
 .data          0x000000000003530c        0x0 build/cooja/mtype599.a(node-id.o)
 .data          0x000000000003530c        0x0 build/cooja/mtype599.a(rtimer.o)
 .data          0x000000000003530c        0x0 build/cooja/mtype599.a(process.o)
 .data          0x000000000003530c        0x0 build/cooja/mtype599.a(timer.o)
 .data          0x000000000003530c        0x0 build/cooja/mtype599.a(list.o)
 .data          0x000000000003530c        0x0 build/cooja/mtype599.a(memb.o)
 .data          0x000000000003530c       0x10 build/cooja/mtype599.a(button-hal.o)
                0x000000000003530c                button_hal_process
 .data          0x000000000003531c       0x10 build/cooja/mtype599.a(serial-line.o)
                0x000000000003531c                serial_line_process
 .data          0x000000000003532c        0x4 build/cooja/mtype599.a(gpio-hal.o)
 .data          0x0000000000035330       0x18 build/cooja/mtype599.a(queuebuf.o)
 .data          0x0000000000035348        0x4 build/cooja/mtype599.a(packetbuf.o)
 .data          0x000000000003534c        0x4 build/cooja/mtype599.a(netstack.o)
 .data          0x0000000000035350        0x0 build/cooja/mtype599.a(linkaddr.o)
 .data          0x0000000000035350        0x0 build/cooja/mtype599.a(csma.o)
 .data          0x0000000000035350       0x28 build/cooja/mtype599.a(csma-output.o)
 .data          0x0000000000035378        0x0 build/cooja/mtype599.a(uip-ds6.o)
 .data          0x0000000000035378        0x0 build/cooja/mtype599.a(uip-udp-packet.)
 .data          0x0000000000035378       0x10 build/cooja/mtype599.a(uip-ds6-route.o)
 .data          0x0000000000035388       0x10 build/cooja/mtype599.a(tcpip.o)
                0x0000000000035388                tcpip_process
 .data          0x0000000000035398        0x0 build/cooja/mtype599.a(uip6.o)
 .data          0x0000000000035398       0x14 build/cooja/mtype599.a(uip-ds6-nbr.o)
 .data          0x00000000000353ac        0xc build/cooja/mtype599.a(uip-nd6.o)
 .data          0x00000000000353b8       0x10 build/cooja/mtype599.a(simple-udp.o)
                0x00000000000353b8                simple_udp_process
 .data          0x00000000000353c8        0x0 build/cooja/mtype599.a(sicslowpan.o)
 .data          0x00000000000353c8        0x0 build/cooja/mtype599.a(uiplib.o)
 .data          0x00000000000353c8        0x0 build/cooja/mtype599.a(rpl.o)
 .data          0x00000000000353c8       0x30 build/cooja/mtype599.a(rpl-icmp6.o)
 .data          0x00000000000353f8        0x0 build/cooja/mtype599.a(rpl-dag-root.o)
 .data          0x00000000000353f8        0x0 build/cooja/mtype599.a(watchdog.o)
 .data          0x00000000000353f8        0x0 build/cooja/mtype599.a(int-master.o)
 .data          0x00000000000353f8       0x10 build/cooja/mtype599.a(coap-timer-defa)
                0x00000000000353f8                coap_timer_process
 .data          0x0000000000035408        0x0 build/cooja/mtype599.a(stimer.o)
 .data          0x0000000000035408        0x0 build/cooja/mtype599.a(ringbuf.o)
 .data          0x0000000000035408        0x0 build/cooja/mtype599.a(assert.o)
 .data          0x0000000000035408       0x10 build/cooja/mtype599.a(nbr-table.o)
 .data          0x0000000000035418       0x14 build/cooja/mtype599.a(link-stats.o)
 .data          0x000000000003542c        0x0 build/cooja/mtype599.a(mac-sequence.o)
 .data          0x000000000003542c        0x0 build/cooja/mtype599.a(mac.o)
 .data          0x000000000003542c        0x0 build/cooja/mtype599.a(framer-802154.o)
 .data          0x000000000003542c        0x2 build/cooja/mtype599.a(frame802154.o)
 .data          0x000000000003542e        0x0 build/cooja/mtype599.a(csma-security.o)
 .data          0x000000000003542e        0x0 build/cooja/mtype599.a(uipbuf.o)
 *fill*         0x000000000003542e        0x2 
 .data          0x0000000000035430       0x20 build/cooja/mtype599.a(uip-icmp6.o)
 .data          0x0000000000035450       0x10 build/cooja/mtype599.a(uip-sr.o)
 .data          0x0000000000035460        0xc build/cooja/mtype599.a(uip-packetqueue)
 .data          0x000000000003546c        0x0 build/cooja/mtype599.a(rpl-nbr-policy.)
 .data          0x000000000003546c       0x14 build/cooja/mtype599.a(rpl-neighbor.o)
                0x000000000003547c                rpl_neighbors
 .data          0x0000000000035480        0x0 build/cooja/mtype599.a(rpl-dag.o)
 .data          0x0000000000035480        0x0 build/cooja/mtype599.a(rpl-timers.o)
 .data          0x0000000000035480        0x0 build/cooja/mtype599.a(rpl-ext-header.)
 .data          0x0000000000035480       0x24 build/cooja/mtype599.a(rpl-mrhof.o)
                0x0000000000035480                rpl_mrhof
 .data          0x00000000000354a4        0x0 /usr/lib/gcc/i686-linux-gnu/5/libgcc.a(_udivdi3.o)
 .data          0x00000000000354a4        0x0 /usr/lib/gcc/i686-linux-gnu/5/crtendS.o
 .data          0x00000000000354a4        0x0 /usr/lib/gcc/i686-linux-gnu/5/../../../i386-linux-gnu/crtn.o

.tm_clone_table
                0x00000000000354a4        0x0
 .tm_clone_table
                0x00000000000354a4        0x0 /usr/lib/gcc/i686-linux-gnu/5/crtbeginS.o
 .tm_clone_table
                0x00000000000354a4        0x0 /usr/lib/gcc/i686-linux-gnu/5/crtendS.o

.data1
 *(.data1)
                0x00000000000354a4                _edata = .
                [!provide]                        PROVIDE (edata, .)
                0x00000000000354a4                . = .
                0x00000000000354a4                __bss_start = .

.bss            0x00000000000354c0    0x146e4
 *(.dynbss)
 .dynbss        0x00000000000354c0        0x0 /usr/lib/gcc/i686-linux-gnu/5/../../../i386-linux-gnu/crti.o
 *(.bss .bss.* .gnu.linkonce.b.*)
 .bss           0x00000000000354c0        0x0 /usr/lib/gcc/i686-linux-gnu/5/../../../i386-linux-gnu/crti.o
 .bss           0x00000000000354c0        0x1 /usr/lib/gcc/i686-linux-gnu/5/crtbeginS.o
 *fill*         0x00000000000354c1       0x1f 
 .bss           0x00000000000354e0      0x28c temperature.o
                0x00000000000354e0                rpl_add
                0x00000000000354e1                registered
 *fill*         0x000000000003576c       0x14 
 .bss           0x0000000000035780     0x2030 build/cooja/mtype599.o
 .bss           0x00000000000377b0        0x1 build/cooja/mtype599.a(simEnvChange.o)
                0x00000000000377b0                simDontFallAsleep
 *fill*         0x00000000000377b1        0x3 
 .bss           0x00000000000377b4        0x4 build/cooja/mtype599.a(cooja_mt.o)
 .bss           0x00000000000377b8        0x4 build/cooja/mtype599.a(cooja_mtarch.o)
 .bss           0x00000000000377bc        0x0 build/cooja/mtype599.a(rtimer-arch.o)
 .bss           0x00000000000377bc        0x0 build/cooja/mtype599.a(beep.o)
 .bss           0x00000000000377bc        0x1 build/cooja/mtype599.a(leds-arch.o)
                0x00000000000377bc                simLedsValue
 .bss           0x00000000000377bd        0x0 build/cooja/mtype599.a(moteid.o)
 .bss           0x00000000000377bd        0x1 build/cooja/mtype599.a(pir-sensor.o)
                0x00000000000377bd                simPirValue
 *fill*         0x00000000000377be        0x2 
 .bss           0x00000000000377c0        0x4 build/cooja/mtype599.a(rs232.o)
 .bss           0x00000000000377c4        0x1 build/cooja/mtype599.a(vib-sensor.o)
                0x00000000000377c4                simVibValue
 .bss           0x00000000000377c5        0x0 build/cooja/mtype599.a(clock.o)
 *fill*         0x00000000000377c5       0x1b 
 .bss           0x00000000000377e0     0x2020 build/cooja/mtype599.a(cooja-log.o)
 .bss           0x0000000000039800      0xfc0 build/cooja/mtype599.a(cfs-cooja.o)
                0x0000000000039800                simCFSData
                0x000000000003a7a0                simCFSSize
                0x000000000003a7a4                simCFSChanged
                0x000000000003a7a8                simCFSRead
                0x000000000003a7ac                simCFSWritten
 .bss           0x000000000003a7c0       0x24 build/cooja/mtype599.a(cooja-radio.o)
                0x000000000003a7c0                simReceiving
                0x000000000003a7c4                simInSize
                0x000000000003a7c8                simLastPacketTimestamp
                0x000000000003a7d0                simOutSize
 .bss           0x000000000003a7e4        0xc build/cooja/mtype599.a(eeprom.o)
                0x000000000003a7e4                simEEPROMChanged
                0x000000000003a7e8                simEEPROMRead
                0x000000000003a7ec                simEEPROMWritten
 .bss           0x000000000003a7f0        0x0 build/cooja/mtype599.a(random.o)
 .bss           0x000000000003a7f0        0xc build/cooja/mtype599.a(sensors.o)
 .bss           0x000000000003a7fc        0x0 build/cooja/mtype599.a(leds.o)
 .bss           0x000000000003a7fc       0x24 build/cooja/mtype599.a(gpio-hal-arch.o)
 .bss           0x000000000003a820        0x0 build/cooja/mtype599.a(buttons.o)
 .bss           0x000000000003a820        0x8 build/cooja/mtype599.a(res_temperature)
                0x000000000003a820                name_assigned
                0x000000000003a821                actuator_ip_assigned
 .bss           0x000000000003a828        0x0 build/cooja/mtype599.a(coap-blocking-a)
 *fill*         0x000000000003a828       0x18 
 .bss           0x000000000003a840      0x190 build/cooja/mtype599.a(coap-engine.o)
 .bss           0x000000000003a9d0        0x0 build/cooja/mtype599.a(coap-res-well-k)
 *fill*         0x000000000003a9d0       0x10 
 .bss           0x000000000003a9e0      0x120 build/cooja/mtype599.a(coap-observe.o)
 .bss           0x000000000003ab00       0x18 build/cooja/mtype599.a(coap-uip.o)
 .bss           0x000000000003ab18        0x5 build/cooja/mtype599.a(coap-timer.o)
 *fill*         0x000000000003ab1d        0x3 
 .bss           0x000000000003ab20      0x334 build/cooja/mtype599.a(coap-transactio)
 .bss           0x000000000003ae54        0x6 build/cooja/mtype599.a(coap.o)
                0x000000000003ae54                coap_status_code
 .bss           0x000000000003ae5a        0x0 build/cooja/mtype599.a(contiki-main.o)
 .bss           0x000000000003ae5a        0x0 build/cooja/mtype599.a(autostart.o)
 *fill*         0x000000000003ae5a        0x2 
 .bss           0x000000000003ae5c        0x5 build/cooja/mtype599.a(ctimer.o)
 *fill*         0x000000000003ae61        0x3 
 .bss           0x000000000003ae64       0x2c build/cooja/mtype599.a(log.o)
                0x000000000003ae64                curr_log_level_rpl
                0x000000000003ae68                curr_log_level_tcpip
                0x000000000003ae6c                curr_log_level_ipv6
                0x000000000003ae70                curr_log_level_6lowpan
                0x000000000003ae74                curr_log_level_nullnet
                0x000000000003ae78                curr_log_level_mac
                0x000000000003ae7c                curr_log_level_framer
                0x000000000003ae80                curr_log_level_6top
                0x000000000003ae84                curr_log_level_coap
                0x000000000003ae88                curr_log_level_snmp
                0x000000000003ae8c                curr_log_level_lwm2m
 .bss           0x000000000003ae90        0x0 build/cooja/mtype599.a(energest.o)
 .bss           0x000000000003ae90        0x8 build/cooja/mtype599.a(etimer.o)
 .bss           0x000000000003ae98        0x2 build/cooja/mtype599.a(node-id.o)
                0x000000000003ae98                node_id
 *fill*         0x000000000003ae9a        0x2 
 .bss           0x000000000003ae9c        0x4 build/cooja/mtype599.a(rtimer.o)
 .bss           0x000000000003aea0      0x1a1 build/cooja/mtype599.a(process.o)
                0x000000000003aea0                process_list
                0x000000000003aea4                process_current
 .bss           0x000000000003b041        0x0 build/cooja/mtype599.a(timer.o)
 .bss           0x000000000003b041        0x0 build/cooja/mtype599.a(list.o)
 .bss           0x000000000003b041        0x0 build/cooja/mtype599.a(memb.o)
 *fill*         0x000000000003b041        0x3 
 .bss           0x000000000003b044       0x10 build/cooja/mtype599.a(button-hal.o)
 *fill*         0x000000000003b054        0xc 
 .bss           0x000000000003b060      0x140 build/cooja/mtype599.a(serial-line.o)
 .bss           0x000000000003b1a0        0x4 build/cooja/mtype599.a(gpio-hal.o)
 *fill*         0x000000000003b1a4       0x1c 
 .bss           0x000000000003b1c0     0x2c80 build/cooja/mtype599.a(queuebuf.o)
 .bss           0x000000000003de40       0xa0 build/cooja/mtype599.a(packetbuf.o)
 .bss           0x000000000003dee0        0x4 build/cooja/mtype599.a(netstack.o)
 .bss           0x000000000003dee4        0x0 build/cooja/mtype599.a(linkaddr.o)
 .bss           0x000000000003dee4        0x0 build/cooja/mtype599.a(csma.o)
 *fill*         0x000000000003dee4       0x1c 
 .bss           0x000000000003df00      0x726 build/cooja/mtype599.a(csma-output.o)
 *fill*         0x000000000003e626        0x2 
 .bss           0x000000000003e628       0x30 build/cooja/mtype599.a(uip-ds6.o)
 .bss           0x000000000003e658        0x0 build/cooja/mtype599.a(uip-udp-packet.)
 *fill*         0x000000000003e658        0x8 
 .bss           0x000000000003e660       0x60 build/cooja/mtype599.a(uip-ds6-route.o)
 .bss           0x000000000003e6c0       0x10 build/cooja/mtype599.a(tcpip.o)
 .bss           0x000000000003e6d0        0x8 build/cooja/mtype599.a(uip6.o)
                0x000000000003e6d0                uip_ext_bitmap
                0x000000000003e6d2                uip_ext_len
                0x000000000003e6d4                uip_last_proto
 *fill*         0x000000000003e6d8        0x8 
 .bss           0x000000000003e6e0     0x1c20 build/cooja/mtype599.a(uip-ds6-nbr.o)
 .bss           0x0000000000040300       0x10 build/cooja/mtype599.a(uip-nd6.o)
 *fill*         0x0000000000040310       0x10 
 .bss           0x0000000000040320      0x520 build/cooja/mtype599.a(simple-udp.o)
 .bss           0x0000000000040840      0x724 build/cooja/mtype599.a(sicslowpan.o)
 .bss           0x0000000000040f64        0x0 build/cooja/mtype599.a(uiplib.o)
 .bss           0x0000000000040f64        0x1 build/cooja/mtype599.a(rpl.o)
 .bss           0x0000000000040f65        0x0 build/cooja/mtype599.a(rpl-icmp6.o)
 *fill*         0x0000000000040f65        0x3 
 .bss           0x0000000000040f68       0x11 build/cooja/mtype599.a(rpl-dag-root.o)
 .bss           0x0000000000040f79        0x0 build/cooja/mtype599.a(watchdog.o)
 *fill*         0x0000000000040f79        0x3 
 .bss           0x0000000000040f7c        0x4 build/cooja/mtype599.a(int-master.o)
 .bss           0x0000000000040f80       0x1c build/cooja/mtype599.a(coap-timer-defa)
 .bss           0x0000000000040f9c        0x0 build/cooja/mtype599.a(stimer.o)
 .bss           0x0000000000040f9c        0x0 build/cooja/mtype599.a(ringbuf.o)
 .bss           0x0000000000040f9c        0x0 build/cooja/mtype599.a(assert.o)
 *fill*         0x0000000000040f9c        0x4 
 .bss           0x0000000000040fa0     0x1214 build/cooja/mtype599.a(nbr-table.o)
 *fill*         0x00000000000421b4        0xc 
 .bss           0x00000000000421c0      0xe10 build/cooja/mtype599.a(link-stats.o)
 *fill*         0x0000000000042fd0       0x10 
 .bss           0x0000000000042fe0      0x100 build/cooja/mtype599.a(mac-sequence.o)
 .bss           0x00000000000430e0        0x0 build/cooja/mtype599.a(mac.o)
 .bss           0x00000000000430e0        0x2 build/cooja/mtype599.a(framer-802154.o)
 .bss           0x00000000000430e2        0x0 build/cooja/mtype599.a(frame802154.o)
 .bss           0x00000000000430e2        0x0 build/cooja/mtype599.a(csma-security.o)
 *fill*         0x00000000000430e2        0x2 
 .bss           0x00000000000430e4       0x18 build/cooja/mtype599.a(uipbuf.o)
 .bss           0x00000000000430fc       0x18 build/cooja/mtype599.a(uip-icmp6.o)
 *fill*         0x0000000000043114        0xc 
 .bss           0x0000000000043120     0x1d80 build/cooja/mtype599.a(uip-sr.o)
 .bss           0x0000000000044ea0      0xa78 build/cooja/mtype599.a(uip-packetqueue)
 .bss           0x0000000000045918        0xe build/cooja/mtype599.a(rpl-nbr-policy.)
 *fill*         0x0000000000045926       0x1a 
 .bss           0x0000000000045940      0x960 build/cooja/mtype599.a(rpl-neighbor.o)
 .bss           0x00000000000462a0        0x0 build/cooja/mtype599.a(rpl-dag.o)
 .bss           0x00000000000462a0       0x40 build/cooja/mtype599.a(rpl-timers.o)
 .bss           0x00000000000462e0        0x0 build/cooja/mtype599.a(rpl-ext-header.)
 .bss           0x00000000000462e0        0x0 build/cooja/mtype599.a(rpl-mrhof.o)
 .bss           0x00000000000462e0        0x0 /usr/lib/gcc/i686-linux-gnu/5/libgcc.a(_udivdi3.o)
 .bss           0x00000000000462e0        0x0 /usr/lib/gcc/i686-linux-gnu/5/crtendS.o
 .bss           0x00000000000462e0        0x0 /usr/lib/gcc/i686-linux-gnu/5/../../../i386-linux-gnu/crtn.o
 *(COMMON)
 COMMON         0x00000000000462e0        0x8 build/cooja/mtype599.o
                0x00000000000462e0                referenceVar
                0x00000000000462e4                sensors_flags
 COMMON         0x00000000000462e8        0xc build/cooja/mtype599.a(simEnvChange.o)
                0x00000000000462e8                simEtimerPending
                0x00000000000462ec                simProcessRunValue
                0x00000000000462f0                simEtimerNextExpirationTime
 *fill*         0x00000000000462f4        0x4 
 COMMON         0x00000000000462f8       0x18 build/cooja/mtype599.a(rtimer-arch.o)
                0x00000000000462f8                simRtimerPending
                0x0000000000046300                simRtimerCurrentTicks
                0x0000000000046308                simRtimerNextExpirationTime
 COMMON         0x0000000000046310        0x1 build/cooja/mtype599.a(beep.o)
                0x0000000000046310                simBeeped
 *fill*         0x0000000000046311        0x3 
 COMMON         0x0000000000046314        0xc build/cooja/mtype599.a(moteid.o)
                0x0000000000046314                simRandomSeed
                0x0000000000046318                simMoteIDChanged
                0x000000000004631c                simMoteID
 COMMON         0x0000000000046320        0x2 build/cooja/mtype599.a(pir-sensor.o)
                0x0000000000046320                simPirIsActive
                0x0000000000046321                simPirChanged
 *fill*         0x0000000000046322       0x1e 
 COMMON         0x0000000000046340      0x820 build/cooja/mtype599.a(rs232.o)
                0x0000000000046340                simSerialReceivingFlag
                0x0000000000046344                simSerialReceivingLength
                0x0000000000046360                simSerialReceivingData
 COMMON         0x0000000000046b60        0x2 build/cooja/mtype599.a(vib-sensor.o)
                0x0000000000046b60                simVibChanged
                0x0000000000046b61                simVibIsActive
 *fill*         0x0000000000046b62        0x2 
 COMMON         0x0000000000046b64        0x4 build/cooja/mtype599.a(clock.o)
                0x0000000000046b64                simCurrentTime
 *fill*         0x0000000000046b68       0x18 
 COMMON         0x0000000000046b80     0x2020 build/cooja/mtype599.a(cooja-log.o)
                0x0000000000046b80                simLoggedLength
                0x0000000000046b84                simLoggedFlag
                0x0000000000046ba0                simLoggedData
 COMMON         0x0000000000048ba0       0xfd build/cooja/mtype599.a(cooja-radio.o)
                0x0000000000048ba0                simOutDataBuffer
                0x0000000000048c20                simInDataBuffer
 *fill*         0x0000000000048c9d        0x3 
 COMMON         0x0000000000048ca0      0x400 build/cooja/mtype599.a(eeprom.o)
                0x0000000000048ca0                simEEPROMData
 COMMON         0x00000000000490a0        0x1 build/cooja/mtype599.a(sensors.o)
                0x00000000000490a0                sensors_event
 COMMON         0x00000000000490a1        0x2 build/cooja/mtype599.a(buttons.o)
                0x00000000000490a1                simButtonIsDown
                0x00000000000490a2                simButtonChanged
 *fill*         0x00000000000490a3       0x1d 
 COMMON         0x00000000000490c0       0xba build/cooja/mtype599.a(res_temperature)
                0x00000000000490c0                s_timestamp
                0x0000000000049124                temp
                0x0000000000049140                actuator_ip
                0x0000000000049168                mote_name
                0x0000000000049177                s_temp
 *fill*         0x000000000004917a        0x2 
 COMMON         0x000000000004917c       0x60 build/cooja/mtype599.a(contiki-main.o)
                0x000000000004917c                eb_per_time_source
                0x0000000000049194                unicast_per_neighbor_rpl_storing
                0x00000000000491ac                unicast_per_neighbor_rpl_ns
                0x00000000000491c4                default_common
 COMMON         0x00000000000491dc        0x3 build/cooja/mtype599.a(button-hal.o)
                0x00000000000491dc                button_hal_periodic_event
                0x00000000000491dd                button_hal_press_event
                0x00000000000491de                button_hal_release_event
 COMMON         0x00000000000491df        0x1 build/cooja/mtype599.a(serial-line.o)
                0x00000000000491df                serial_line_event_message
 COMMON         0x00000000000491e0       0x2c build/cooja/mtype599.a(packetbuf.o)
                0x00000000000491e0                packetbuf_attrs
                0x00000000000491fc                packetbuf_addrs
 COMMON         0x000000000004920c        0x8 build/cooja/mtype599.a(linkaddr.o)
                0x000000000004920c                linkaddr_node_addr
 *fill*         0x0000000000049214        0xc 
 COMMON         0x0000000000049220      0x181 build/cooja/mtype599.a(uip-ds6.o)
                0x0000000000049220                uip_ds6_prefix_list
                0x0000000000049280                uip_ds6_timer_periodic
                0x0000000000049290                uip_ds6_netif_addr_list_offset
                0x00000000000492a0                uip_ds6_if
                0x0000000000049398                uip_ds6_timer_ra
                0x00000000000493a0                uip_ds6_addr_size
 COMMON         0x00000000000493a1        0x1 build/cooja/mtype599.a(tcpip.o)
                0x00000000000493a1                tcpip_event
 *fill*         0x00000000000493a2       0x1e 
 COMMON         0x00000000000493c0      0x648 build/cooja/mtype599.a(uip6.o)
                0x00000000000493c0                uip_slen
                0x00000000000493c4                uip_lladdr
                0x00000000000493cc                uip_appdata
                0x00000000000493d0                uip_flags
                0x00000000000493e0                uip_aligned_buf
                0x00000000000498e0                uip_len
                0x00000000000498e4                uip_sappdata
                0x0000000000049900                uip_udp_conns
                0x0000000000049a00                uip_udp_conn
                0x0000000000049a04                uip_conn
 COMMON         0x0000000000049a08       0x10 build/cooja/mtype599.a(rpl.o)
                0x0000000000049a08                rpl_multicast_addr
 *fill*         0x0000000000049a18        0x8 
 COMMON         0x0000000000049a20       0x20 build/cooja/mtype599.a(link-stats.o)
                0x0000000000049a20                periodic_timer
 COMMON         0x0000000000049a40      0x164 build/cooja/mtype599.a(rpl-dag.o)
                0x0000000000049a40                curr_instance
                0x0000000000049ba4                . = ALIGN ((. != 0x0)?0x4:0x1)
                0x0000000000049ba4                . = ALIGN (0x4)
                0x0000000000049ba4                . = SEGMENT_START ("ldata-segment", .)
                0x0000000000049ba4                . = ALIGN (0x4)
                0x0000000000049ba4                _end = .
                [!provide]                        PROVIDE (end, .)
                0x0000000000049ba4                . = DATA_SEGMENT_END (.)

.stab
 *(.stab)

.stabstr
 *(.stabstr)

.stab.excl
 *(.stab.excl)

.stab.exclstr
 *(.stab.exclstr)

.stab.index
 *(.stab.index)

.stab.indexstr
 *(.stab.indexstr)

.comment        0x0000000000000000       0x35
 *(.comment)
 .comment       0x0000000000000000       0x35 /usr/lib/gcc/i686-linux-gnu/5/crtbeginS.o
                                         0x36 (size before relaxing)
 .comment       0x0000000000000035       0x36 temperature.o
 .comment       0x0000000000000035       0x36 build/cooja/mtype599.o
 .comment       0x0000000000000035       0x36 build/cooja/mtype599.a(simEnvChange.o)
 .comment       0x0000000000000035       0x36 build/cooja/mtype599.a(cooja_mt.o)
 .comment       0x0000000000000035       0x36 build/cooja/mtype599.a(cooja_mtarch.o)
 .comment       0x0000000000000035       0x36 build/cooja/mtype599.a(rtimer-arch.o)
 .comment       0x0000000000000035       0x36 build/cooja/mtype599.a(beep.o)
 .comment       0x0000000000000035       0x36 build/cooja/mtype599.a(leds-arch.o)
 .comment       0x0000000000000035       0x36 build/cooja/mtype599.a(moteid.o)
 .comment       0x0000000000000035       0x36 build/cooja/mtype599.a(pir-sensor.o)
 .comment       0x0000000000000035       0x36 build/cooja/mtype599.a(rs232.o)
 .comment       0x0000000000000035       0x36 build/cooja/mtype599.a(vib-sensor.o)
 .comment       0x0000000000000035       0x36 build/cooja/mtype599.a(clock.o)
 .comment       0x0000000000000035       0x36 build/cooja/mtype599.a(cooja-log.o)
 .comment       0x0000000000000035       0x36 build/cooja/mtype599.a(cfs-cooja.o)
 .comment       0x0000000000000035       0x36 build/cooja/mtype599.a(cooja-radio.o)
 .comment       0x0000000000000035       0x36 build/cooja/mtype599.a(eeprom.o)
 .comment       0x0000000000000035       0x36 build/cooja/mtype599.a(random.o)
 .comment       0x0000000000000035       0x36 build/cooja/mtype599.a(sensors.o)
 .comment       0x0000000000000035       0x36 build/cooja/mtype599.a(leds.o)
 .comment       0x0000000000000035       0x36 build/cooja/mtype599.a(gpio-hal-arch.o)
 .comment       0x0000000000000035       0x36 build/cooja/mtype599.a(buttons.o)
 .comment       0x0000000000000035       0x36 build/cooja/mtype599.a(res_temperature)
 .comment       0x0000000000000035       0x36 build/cooja/mtype599.a(coap-blocking-a)
 .comment       0x0000000000000035       0x36 build/cooja/mtype599.a(coap-engine.o)
 .comment       0x0000000000000035       0x36 build/cooja/mtype599.a(coap-res-well-k)
 .comment       0x0000000000000035       0x36 build/cooja/mtype599.a(coap-observe.o)
 .comment       0x0000000000000035       0x36 build/cooja/mtype599.a(coap-uip.o)
 .comment       0x0000000000000035       0x36 build/cooja/mtype599.a(coap-timer.o)
 .comment       0x0000000000000035       0x36 build/cooja/mtype599.a(coap-transactio)
 .comment       0x0000000000000035       0x36 build/cooja/mtype599.a(coap.o)
 .comment       0x0000000000000035       0x36 build/cooja/mtype599.a(contiki-main.o)
 .comment       0x0000000000000035       0x36 build/cooja/mtype599.a(autostart.o)
 .comment       0x0000000000000035       0x36 build/cooja/mtype599.a(ctimer.o)
 .comment       0x0000000000000035       0x36 build/cooja/mtype599.a(log.o)
 .comment       0x0000000000000035       0x36 build/cooja/mtype599.a(energest.o)
 .comment       0x0000000000000035       0x36 build/cooja/mtype599.a(etimer.o)
 .comment       0x0000000000000035       0x36 build/cooja/mtype599.a(node-id.o)
 .comment       0x0000000000000035       0x36 build/cooja/mtype599.a(rtimer.o)
 .comment       0x0000000000000035       0x36 build/cooja/mtype599.a(process.o)
 .comment       0x0000000000000035       0x36 build/cooja/mtype599.a(timer.o)
 .comment       0x0000000000000035       0x36 build/cooja/mtype599.a(list.o)
 .comment       0x0000000000000035       0x36 build/cooja/mtype599.a(memb.o)
 .comment       0x0000000000000035       0x36 build/cooja/mtype599.a(button-hal.o)
 .comment       0x0000000000000035       0x36 build/cooja/mtype599.a(serial-line.o)
 .comment       0x0000000000000035       0x36 build/cooja/mtype599.a(gpio-hal.o)
 .comment       0x0000000000000035       0x36 build/cooja/mtype599.a(queuebuf.o)
 .comment       0x0000000000000035       0x36 build/cooja/mtype599.a(packetbuf.o)
 .comment       0x0000000000000035       0x36 build/cooja/mtype599.a(netstack.o)
 .comment       0x0000000000000035       0x36 build/cooja/mtype599.a(linkaddr.o)
 .comment       0x0000000000000035       0x36 build/cooja/mtype599.a(csma.o)
 .comment       0x0000000000000035       0x36 build/cooja/mtype599.a(csma-output.o)
 .comment       0x0000000000000035       0x36 build/cooja/mtype599.a(uip-ds6.o)
 .comment       0x0000000000000035       0x36 build/cooja/mtype599.a(uip-udp-packet.)
 .comment       0x0000000000000035       0x36 build/cooja/mtype599.a(uip-ds6-route.o)
 .comment       0x0000000000000035       0x36 build/cooja/mtype599.a(tcpip.o)
 .comment       0x0000000000000035       0x36 build/cooja/mtype599.a(uip6.o)
 .comment       0x0000000000000035       0x36 build/cooja/mtype599.a(uip-ds6-nbr.o)
 .comment       0x0000000000000035       0x36 build/cooja/mtype599.a(uip-nd6.o)
 .comment       0x0000000000000035       0x36 build/cooja/mtype599.a(simple-udp.o)
 .comment       0x0000000000000035       0x36 build/cooja/mtype599.a(sicslowpan.o)
 .comment       0x0000000000000035       0x36 build/cooja/mtype599.a(uiplib.o)
 .comment       0x0000000000000035       0x36 build/cooja/mtype599.a(rpl.o)
 .comment       0x0000000000000035       0x36 build/cooja/mtype599.a(rpl-icmp6.o)
 .comment       0x0000000000000035       0x36 build/cooja/mtype599.a(rpl-dag-root.o)
 .comment       0x0000000000000035       0x36 build/cooja/mtype599.a(watchdog.o)
 .comment       0x0000000000000035       0x36 build/cooja/mtype599.a(int-master.o)
 .comment       0x0000000000000035       0x36 build/cooja/mtype599.a(coap-timer-defa)
 .comment       0x0000000000000035       0x36 build/cooja/mtype599.a(stimer.o)
 .comment       0x0000000000000035       0x36 build/cooja/mtype599.a(ringbuf.o)
 .comment       0x0000000000000035       0x36 build/cooja/mtype599.a(assert.o)
 .comment       0x0000000000000035       0x36 build/cooja/mtype599.a(nbr-table.o)
 .comment       0x0000000000000035       0x36 build/cooja/mtype599.a(link-stats.o)
 .comment       0x0000000000000035       0x36 build/cooja/mtype599.a(mac-sequence.o)
 .comment       0x0000000000000035       0x36 build/cooja/mtype599.a(mac.o)
 .comment       0x0000000000000035       0x36 build/cooja/mtype599.a(framer-802154.o)
 .comment       0x0000000000000035       0x36 build/cooja/mtype599.a(frame802154.o)
 .comment       0x0000000000000035       0x36 build/cooja/mtype599.a(csma-security.o)
 .comment       0x0000000000000035       0x36 build/cooja/mtype599.a(uipbuf.o)
 .comment       0x0000000000000035       0x36 build/cooja/mtype599.a(uip-icmp6.o)
 .comment       0x0000000000000035       0x36 build/cooja/mtype599.a(uip-sr.o)
 .comment       0x0000000000000035       0x36 build/cooja/mtype599.a(uip-packetqueue)
 .comment       0x0000000000000035       0x36 build/cooja/mtype599.a(rpl-nbr-policy.)
 .comment       0x0000000000000035       0x36 build/cooja/mtype599.a(rpl-neighbor.o)
 .comment       0x0000000000000035       0x36 build/cooja/mtype599.a(rpl-dag.o)
 .comment       0x0000000000000035       0x36 build/cooja/mtype599.a(rpl-timers.o)
 .comment       0x0000000000000035       0x36 build/cooja/mtype599.a(rpl-ext-header.)
 .comment       0x0000000000000035       0x36 build/cooja/mtype599.a(rpl-mrhof.o)
 .comment       0x0000000000000035       0x36 /usr/lib/gcc/i686-linux-gnu/5/crtendS.o

.debug
 *(.debug)

.line
 *(.line)

.debug_srcinfo
 *(.debug_srcinfo)

.debug_sfnames
 *(.debug_sfnames)

.debug_aranges  0x0000000000000000      0xb00
 *(.debug_aranges)
 .debug_aranges
                0x0000000000000000       0x20 temperature.o
 .debug_aranges
                0x0000000000000020       0x20 build/cooja/mtype599.o
 .debug_aranges
                0x0000000000000040       0x20 build/cooja/mtype599.a(simEnvChange.o)
 .debug_aranges
                0x0000000000000060       0x20 build/cooja/mtype599.a(cooja_mt.o)
 .debug_aranges
                0x0000000000000080       0x20 build/cooja/mtype599.a(cooja_mtarch.o)
 .debug_aranges
                0x00000000000000a0       0x20 build/cooja/mtype599.a(rtimer-arch.o)
 .debug_aranges
                0x00000000000000c0       0x20 build/cooja/mtype599.a(beep.o)
 .debug_aranges
                0x00000000000000e0       0x20 build/cooja/mtype599.a(leds-arch.o)
 .debug_aranges
                0x0000000000000100       0x20 build/cooja/mtype599.a(moteid.o)
 .debug_aranges
                0x0000000000000120       0x20 build/cooja/mtype599.a(pir-sensor.o)
 .debug_aranges
                0x0000000000000140       0x20 build/cooja/mtype599.a(rs232.o)
 .debug_aranges
                0x0000000000000160       0x20 build/cooja/mtype599.a(vib-sensor.o)
 .debug_aranges
                0x0000000000000180       0x20 build/cooja/mtype599.a(clock.o)
 .debug_aranges
                0x00000000000001a0       0x20 build/cooja/mtype599.a(cooja-log.o)
 .debug_aranges
                0x00000000000001c0       0x20 build/cooja/mtype599.a(cfs-cooja.o)
 .debug_aranges
                0x00000000000001e0       0x20 build/cooja/mtype599.a(cooja-radio.o)
 .debug_aranges
                0x0000000000000200       0x20 build/cooja/mtype599.a(eeprom.o)
 .debug_aranges
                0x0000000000000220       0x20 build/cooja/mtype599.a(random.o)
 .debug_aranges
                0x0000000000000240       0x20 build/cooja/mtype599.a(sensors.o)
 .debug_aranges
                0x0000000000000260       0x20 build/cooja/mtype599.a(leds.o)
 .debug_aranges
                0x0000000000000280       0x20 build/cooja/mtype599.a(gpio-hal-arch.o)
 .debug_aranges
                0x00000000000002a0       0x20 build/cooja/mtype599.a(buttons.o)
 .debug_aranges
                0x00000000000002c0       0x20 build/cooja/mtype599.a(res_temperature)
 .debug_aranges
                0x00000000000002e0       0x20 build/cooja/mtype599.a(coap-blocking-a)
 .debug_aranges
                0x0000000000000300       0x20 build/cooja/mtype599.a(coap-engine.o)
 .debug_aranges
                0x0000000000000320       0x20 build/cooja/mtype599.a(coap-res-well-k)
 .debug_aranges
                0x0000000000000340       0x20 build/cooja/mtype599.a(coap-observe.o)
 .debug_aranges
                0x0000000000000360       0x20 build/cooja/mtype599.a(coap-uip.o)
 .debug_aranges
                0x0000000000000380       0x20 build/cooja/mtype599.a(coap-timer.o)
 .debug_aranges
                0x00000000000003a0       0x20 build/cooja/mtype599.a(coap-transactio)
 .debug_aranges
                0x00000000000003c0       0x20 build/cooja/mtype599.a(coap.o)
 .debug_aranges
                0x00000000000003e0       0x20 build/cooja/mtype599.a(contiki-main.o)
 .debug_aranges
                0x0000000000000400       0x20 build/cooja/mtype599.a(autostart.o)
 .debug_aranges
                0x0000000000000420       0x20 build/cooja/mtype599.a(ctimer.o)
 .debug_aranges
                0x0000000000000440       0x20 build/cooja/mtype599.a(log.o)
 .debug_aranges
                0x0000000000000460       0x20 build/cooja/mtype599.a(energest.o)
 .debug_aranges
                0x0000000000000480       0x20 build/cooja/mtype599.a(etimer.o)
 .debug_aranges
                0x00000000000004a0       0x20 build/cooja/mtype599.a(node-id.o)
 .debug_aranges
                0x00000000000004c0       0x20 build/cooja/mtype599.a(rtimer.o)
 .debug_aranges
                0x00000000000004e0       0x20 build/cooja/mtype599.a(process.o)
 .debug_aranges
                0x0000000000000500       0x20 build/cooja/mtype599.a(timer.o)
 .debug_aranges
                0x0000000000000520       0x20 build/cooja/mtype599.a(list.o)
 .debug_aranges
                0x0000000000000540       0x20 build/cooja/mtype599.a(memb.o)
 .debug_aranges
                0x0000000000000560       0x20 build/cooja/mtype599.a(button-hal.o)
 .debug_aranges
                0x0000000000000580       0x20 build/cooja/mtype599.a(serial-line.o)
 .debug_aranges
                0x00000000000005a0       0x20 build/cooja/mtype599.a(gpio-hal.o)
 .debug_aranges
                0x00000000000005c0       0x20 build/cooja/mtype599.a(queuebuf.o)
 .debug_aranges
                0x00000000000005e0       0x20 build/cooja/mtype599.a(packetbuf.o)
 .debug_aranges
                0x0000000000000600       0x20 build/cooja/mtype599.a(netstack.o)
 .debug_aranges
                0x0000000000000620       0x20 build/cooja/mtype599.a(linkaddr.o)
 .debug_aranges
                0x0000000000000640       0x20 build/cooja/mtype599.a(csma.o)
 .debug_aranges
                0x0000000000000660       0x20 build/cooja/mtype599.a(csma-output.o)
 .debug_aranges
                0x0000000000000680       0x20 build/cooja/mtype599.a(uip-ds6.o)
 .debug_aranges
                0x00000000000006a0       0x20 build/cooja/mtype599.a(uip-udp-packet.)
 .debug_aranges
                0x00000000000006c0       0x20 build/cooja/mtype599.a(uip-ds6-route.o)
 .debug_aranges
                0x00000000000006e0       0x20 build/cooja/mtype599.a(tcpip.o)
 .debug_aranges
                0x0000000000000700       0x20 build/cooja/mtype599.a(uip6.o)
 .debug_aranges
                0x0000000000000720       0x20 build/cooja/mtype599.a(uip-ds6-nbr.o)
 .debug_aranges
                0x0000000000000740       0x20 build/cooja/mtype599.a(uip-nd6.o)
 .debug_aranges
                0x0000000000000760       0x20 build/cooja/mtype599.a(simple-udp.o)
 .debug_aranges
                0x0000000000000780       0x20 build/cooja/mtype599.a(sicslowpan.o)
 .debug_aranges
                0x00000000000007a0       0x20 build/cooja/mtype599.a(uiplib.o)
 .debug_aranges
                0x00000000000007c0       0x20 build/cooja/mtype599.a(rpl.o)
 .debug_aranges
                0x00000000000007e0       0x20 build/cooja/mtype599.a(rpl-icmp6.o)
 .debug_aranges
                0x0000000000000800       0x20 build/cooja/mtype599.a(rpl-dag-root.o)
 .debug_aranges
                0x0000000000000820       0x20 build/cooja/mtype599.a(watchdog.o)
 .debug_aranges
                0x0000000000000840       0x20 build/cooja/mtype599.a(int-master.o)
 .debug_aranges
                0x0000000000000860       0x20 build/cooja/mtype599.a(coap-timer-defa)
 .debug_aranges
                0x0000000000000880       0x20 build/cooja/mtype599.a(stimer.o)
 .debug_aranges
                0x00000000000008a0       0x20 build/cooja/mtype599.a(ringbuf.o)
 .debug_aranges
                0x00000000000008c0       0x20 build/cooja/mtype599.a(assert.o)
 .debug_aranges
                0x00000000000008e0       0x20 build/cooja/mtype599.a(nbr-table.o)
 .debug_aranges
                0x0000000000000900       0x20 build/cooja/mtype599.a(link-stats.o)
 .debug_aranges
                0x0000000000000920       0x20 build/cooja/mtype599.a(mac-sequence.o)
 .debug_aranges
                0x0000000000000940       0x20 build/cooja/mtype599.a(mac.o)
 .debug_aranges
                0x0000000000000960       0x20 build/cooja/mtype599.a(framer-802154.o)
 .debug_aranges
                0x0000000000000980       0x20 build/cooja/mtype599.a(frame802154.o)
 .debug_aranges
                0x00000000000009a0       0x20 build/cooja/mtype599.a(csma-security.o)
 .debug_aranges
                0x00000000000009c0       0x20 build/cooja/mtype599.a(uipbuf.o)
 .debug_aranges
                0x00000000000009e0       0x20 build/cooja/mtype599.a(uip-icmp6.o)
 .debug_aranges
                0x0000000000000a00       0x20 build/cooja/mtype599.a(uip-sr.o)
 .debug_aranges
                0x0000000000000a20       0x20 build/cooja/mtype599.a(uip-packetqueue)
 .debug_aranges
                0x0000000000000a40       0x20 build/cooja/mtype599.a(rpl-nbr-policy.)
 .debug_aranges
                0x0000000000000a60       0x20 build/cooja/mtype599.a(rpl-neighbor.o)
 .debug_aranges
                0x0000000000000a80       0x20 build/cooja/mtype599.a(rpl-dag.o)
 .debug_aranges
                0x0000000000000aa0       0x20 build/cooja/mtype599.a(rpl-timers.o)
 .debug_aranges
                0x0000000000000ac0       0x20 build/cooja/mtype599.a(rpl-ext-header.)
 .debug_aranges
                0x0000000000000ae0       0x20 build/cooja/mtype599.a(rpl-mrhof.o)

.debug_pubnames
 *(.debug_pubnames)

.debug_info     0x0000000000000000    0x279a7
 *(.debug_info .gnu.linkonce.wi.*)
 .debug_info    0x0000000000000000     0x13ed temperature.o
 .debug_info    0x00000000000013ed     0x325a build/cooja/mtype599.o
 .debug_info    0x0000000000004647      0x15a build/cooja/mtype599.a(simEnvChange.o)
 .debug_info    0x00000000000047a1      0x1af build/cooja/mtype599.a(cooja_mt.o)
 .debug_info    0x0000000000004950      0x212 build/cooja/mtype599.a(cooja_mtarch.o)
 .debug_info    0x0000000000004b62      0x181 build/cooja/mtype599.a(rtimer-arch.o)
 .debug_info    0x0000000000004ce3      0x1fa build/cooja/mtype599.a(beep.o)
 .debug_info    0x0000000000004edd      0x194 build/cooja/mtype599.a(leds-arch.o)
 .debug_info    0x0000000000005071      0x111 build/cooja/mtype599.a(moteid.o)
 .debug_info    0x0000000000005182      0x21d build/cooja/mtype599.a(pir-sensor.o)
 .debug_info    0x000000000000539f      0x21e build/cooja/mtype599.a(rs232.o)
 .debug_info    0x00000000000055bd      0x21d build/cooja/mtype599.a(vib-sensor.o)
 .debug_info    0x00000000000057da      0x159 build/cooja/mtype599.a(clock.o)
 .debug_info    0x0000000000005933      0x2bb build/cooja/mtype599.a(cooja-log.o)
 .debug_info    0x0000000000005bee      0x3cf build/cooja/mtype599.a(cfs-cooja.o)
 .debug_info    0x0000000000005fbd      0xb0a build/cooja/mtype599.a(cooja-radio.o)
 .debug_info    0x0000000000006ac7      0x1d5 build/cooja/mtype599.a(eeprom.o)
 .debug_info    0x0000000000006c9c       0xb3 build/cooja/mtype599.a(random.o)
 .debug_info    0x0000000000006d4f      0x36d build/cooja/mtype599.a(sensors.o)
 .debug_info    0x00000000000070bc      0x28a build/cooja/mtype599.a(leds.o)
 .debug_info    0x0000000000007346      0x40e build/cooja/mtype599.a(gpio-hal-arch.o)
 .debug_info    0x0000000000007754      0x4bc build/cooja/mtype599.a(buttons.o)
 .debug_info    0x0000000000007c10      0xa9a build/cooja/mtype599.a(res_temperature)
 .debug_info    0x00000000000086aa      0x836 build/cooja/mtype599.a(coap-blocking-a)
 .debug_info    0x0000000000008ee0      0xe93 build/cooja/mtype599.a(coap-engine.o)
 .debug_info    0x0000000000009d73      0x8a4 build/cooja/mtype599.a(coap-res-well-k)
 .debug_info    0x000000000000a617      0xdd0 build/cooja/mtype599.a(coap-observe.o)
 .debug_info    0x000000000000b3e7      0xe48 build/cooja/mtype599.a(coap-uip.o)
 .debug_info    0x000000000000c22f      0x2f1 build/cooja/mtype599.a(coap-timer.o)
 .debug_info    0x000000000000c520      0x862 build/cooja/mtype599.a(coap-transactio)
 .debug_info    0x000000000000cd82     0x14c2 build/cooja/mtype599.a(coap.o)
 .debug_info    0x000000000000e244      0xf52 build/cooja/mtype599.a(contiki-main.o)
 .debug_info    0x000000000000f196      0x1ac build/cooja/mtype599.a(autostart.o)
 .debug_info    0x000000000000f342      0x473 build/cooja/mtype599.a(ctimer.o)
 .debug_info    0x000000000000f7b5      0x483 build/cooja/mtype599.a(log.o)
 .debug_info    0x000000000000fc38       0xbc build/cooja/mtype599.a(energest.o)
 .debug_info    0x000000000000fcf4      0x49f build/cooja/mtype599.a(etimer.o)
 .debug_info    0x0000000000010193       0xfb build/cooja/mtype599.a(node-id.o)
 .debug_info    0x000000000001028e      0x1c1 build/cooja/mtype599.a(rtimer.o)
 .debug_info    0x000000000001044f      0x4ab build/cooja/mtype599.a(process.o)
 .debug_info    0x00000000000108fa      0x17a build/cooja/mtype599.a(timer.o)
 .debug_info    0x0000000000010a74      0x38b build/cooja/mtype599.a(list.o)
 .debug_info    0x0000000000010dff      0x1e4 build/cooja/mtype599.a(memb.o)
 .debug_info    0x0000000000010fe3      0x60c build/cooja/mtype599.a(button-hal.o)
 .debug_info    0x00000000000115ef      0x2de build/cooja/mtype599.a(serial-line.o)
 .debug_info    0x00000000000118cd      0x25d build/cooja/mtype599.a(gpio-hal.o)
 .debug_info    0x0000000000011b2a      0x570 build/cooja/mtype599.a(queuebuf.o)
 .debug_info    0x000000000001209a      0x553 build/cooja/mtype599.a(packetbuf.o)
 .debug_info    0x00000000000125ed      0x56a build/cooja/mtype599.a(netstack.o)
 .debug_info    0x0000000000012b57      0x18b build/cooja/mtype599.a(linkaddr.o)
 .debug_info    0x0000000000012ce2      0x68e build/cooja/mtype599.a(csma.o)
 .debug_info    0x0000000000013370      0xc80 build/cooja/mtype599.a(csma-output.o)
 .debug_info    0x0000000000013ff0      0xae8 build/cooja/mtype599.a(uip-ds6.o)
 .debug_info    0x0000000000014ad8      0x37a build/cooja/mtype599.a(uip-udp-packet.)
 .debug_info    0x0000000000014e52      0x881 build/cooja/mtype599.a(uip-ds6-route.o)
 .debug_info    0x00000000000156d3      0xf3d build/cooja/mtype599.a(tcpip.o)
 .debug_info    0x0000000000016610     0x116c build/cooja/mtype599.a(uip6.o)
 .debug_info    0x000000000001777c      0xb97 build/cooja/mtype599.a(uip-ds6-nbr.o)
 .debug_info    0x0000000000018313      0x7fb build/cooja/mtype599.a(uip-nd6.o)
 .debug_info    0x0000000000018b0e      0x6a6 build/cooja/mtype599.a(simple-udp.o)
 .debug_info    0x00000000000191b4     0x1723 build/cooja/mtype599.a(sicslowpan.o)
 .debug_info    0x000000000001a8d7      0x30b build/cooja/mtype599.a(uiplib.o)
 .debug_info    0x000000000001abe2     0x10bb build/cooja/mtype599.a(rpl.o)
 .debug_info    0x000000000001bc9d     0x1065 build/cooja/mtype599.a(rpl-icmp6.o)
 .debug_info    0x000000000001cd02      0xb33 build/cooja/mtype599.a(rpl-dag-root.o)
 .debug_info    0x000000000001d835       0xda build/cooja/mtype599.a(watchdog.o)
 .debug_info    0x000000000001d90f      0x119 build/cooja/mtype599.a(int-master.o)
 .debug_info    0x000000000001da28      0x330 build/cooja/mtype599.a(coap-timer-defa)
 .debug_info    0x000000000001dd58      0x187 build/cooja/mtype599.a(stimer.o)
 .debug_info    0x000000000001dedf      0x1b8 build/cooja/mtype599.a(ringbuf.o)
 .debug_info    0x000000000001e097       0xb3 build/cooja/mtype599.a(assert.o)
 .debug_info    0x000000000001e14a      0x95a build/cooja/mtype599.a(nbr-table.o)
 .debug_info    0x000000000001eaa4      0x67c build/cooja/mtype599.a(link-stats.o)
 .debug_info    0x000000000001f120      0x213 build/cooja/mtype599.a(mac-sequence.o)
 .debug_info    0x000000000001f333       0xf3 build/cooja/mtype599.a(mac.o)
 .debug_info    0x000000000001f426      0x512 build/cooja/mtype599.a(framer-802154.o)
 .debug_info    0x000000000001f938      0x738 build/cooja/mtype599.a(frame802154.o)
 .debug_info    0x0000000000020070      0x166 build/cooja/mtype599.a(csma-security.o)
 .debug_info    0x00000000000201d6      0x575 build/cooja/mtype599.a(uipbuf.o)
 .debug_info    0x000000000002074b      0xd4a build/cooja/mtype599.a(uip-icmp6.o)
 .debug_info    0x0000000000021495      0xb31 build/cooja/mtype599.a(uip-sr.o)
 .debug_info    0x0000000000021fc6      0x477 build/cooja/mtype599.a(uip-packetqueue)
 .debug_info    0x000000000002243d      0xc0e build/cooja/mtype599.a(rpl-nbr-policy.)
 .debug_info    0x000000000002304b      0xe69 build/cooja/mtype599.a(rpl-neighbor.o)
 .debug_info    0x0000000000023eb4      0xfe3 build/cooja/mtype599.a(rpl-dag.o)
 .debug_info    0x0000000000024e97      0xcbb build/cooja/mtype599.a(rpl-timers.o)
 .debug_info    0x0000000000025b52     0x1496 build/cooja/mtype599.a(rpl-ext-header.)
 .debug_info    0x0000000000026fe8      0x9bf build/cooja/mtype599.a(rpl-mrhof.o)

.debug_abbrev   0x0000000000000000     0x9293
 *(.debug_abbrev)
 .debug_abbrev  0x0000000000000000      0x23b temperature.o
 .debug_abbrev  0x000000000000023b      0x27e build/cooja/mtype599.o
 .debug_abbrev  0x00000000000004b9       0xc3 build/cooja/mtype599.a(simEnvChange.o)
 .debug_abbrev  0x000000000000057c       0xe6 build/cooja/mtype599.a(cooja_mt.o)
 .debug_abbrev  0x0000000000000662      0x11e build/cooja/mtype599.a(cooja_mtarch.o)
 .debug_abbrev  0x0000000000000780       0xeb build/cooja/mtype599.a(rtimer-arch.o)
 .debug_abbrev  0x000000000000086b       0xe3 build/cooja/mtype599.a(beep.o)
 .debug_abbrev  0x000000000000094e       0xe0 build/cooja/mtype599.a(leds-arch.o)
 .debug_abbrev  0x0000000000000a2e       0x9c build/cooja/mtype599.a(moteid.o)
 .debug_abbrev  0x0000000000000aca       0xe6 build/cooja/mtype599.a(pir-sensor.o)
 .debug_abbrev  0x0000000000000bb0      0x14a build/cooja/mtype599.a(rs232.o)
 .debug_abbrev  0x0000000000000cfa       0xe6 build/cooja/mtype599.a(vib-sensor.o)
 .debug_abbrev  0x0000000000000de0       0xee build/cooja/mtype599.a(clock.o)
 .debug_abbrev  0x0000000000000ece      0x141 build/cooja/mtype599.a(cooja-log.o)
 .debug_abbrev  0x000000000000100f      0x139 build/cooja/mtype599.a(cfs-cooja.o)
 .debug_abbrev  0x0000000000001148      0x2ef build/cooja/mtype599.a(cooja-radio.o)
 .debug_abbrev  0x0000000000001437       0xf5 build/cooja/mtype599.a(eeprom.o)
 .debug_abbrev  0x000000000000152c       0x6d build/cooja/mtype599.a(random.o)
 .debug_abbrev  0x0000000000001599      0x1c2 build/cooja/mtype599.a(sensors.o)
 .debug_abbrev  0x000000000000175b       0xfc build/cooja/mtype599.a(leds.o)
 .debug_abbrev  0x0000000000001857      0x115 build/cooja/mtype599.a(gpio-hal-arch.o)
 .debug_abbrev  0x000000000000196c      0x16f build/cooja/mtype599.a(buttons.o)
 .debug_abbrev  0x0000000000001adb      0x1c3 build/cooja/mtype599.a(res_temperature)
 .debug_abbrev  0x0000000000001c9e      0x1c3 build/cooja/mtype599.a(coap-blocking-a)
 .debug_abbrev  0x0000000000001e61      0x2d5 build/cooja/mtype599.a(coap-engine.o)
 .debug_abbrev  0x0000000000002136      0x169 build/cooja/mtype599.a(coap-res-well-k)
 .debug_abbrev  0x000000000000229f      0x234 build/cooja/mtype599.a(coap-observe.o)
 .debug_abbrev  0x00000000000024d3      0x378 build/cooja/mtype599.a(coap-uip.o)
 .debug_abbrev  0x000000000000284b      0x155 build/cooja/mtype599.a(coap-timer.o)
 .debug_abbrev  0x00000000000029a0      0x1c4 build/cooja/mtype599.a(coap-transactio)
 .debug_abbrev  0x0000000000002b64      0x23c build/cooja/mtype599.a(coap.o)
 .debug_abbrev  0x0000000000002da0      0x1ef build/cooja/mtype599.a(contiki-main.o)
 .debug_abbrev  0x0000000000002f8f       0xfb build/cooja/mtype599.a(autostart.o)
 .debug_abbrev  0x000000000000308a      0x1a1 build/cooja/mtype599.a(ctimer.o)
 .debug_abbrev  0x000000000000322b      0x159 build/cooja/mtype599.a(log.o)
 .debug_abbrev  0x0000000000003384       0x69 build/cooja/mtype599.a(energest.o)
 .debug_abbrev  0x00000000000033ed      0x1f8 build/cooja/mtype599.a(etimer.o)
 .debug_abbrev  0x00000000000035e5       0x9d build/cooja/mtype599.a(node-id.o)
 .debug_abbrev  0x0000000000003682      0x126 build/cooja/mtype599.a(rtimer.o)
 .debug_abbrev  0x00000000000037a8      0x244 build/cooja/mtype599.a(process.o)
 .debug_abbrev  0x00000000000039ec       0xdb build/cooja/mtype599.a(timer.o)
 .debug_abbrev  0x0000000000003ac7      0x136 build/cooja/mtype599.a(list.o)
 .debug_abbrev  0x0000000000003bfd       0xe4 build/cooja/mtype599.a(memb.o)
 .debug_abbrev  0x0000000000003ce1      0x1ea build/cooja/mtype599.a(button-hal.o)
 .debug_abbrev  0x0000000000003ecb      0x190 build/cooja/mtype599.a(serial-line.o)
 .debug_abbrev  0x000000000000405b       0xd4 build/cooja/mtype599.a(gpio-hal.o)
 .debug_abbrev  0x000000000000412f      0x1a6 build/cooja/mtype599.a(queuebuf.o)
 .debug_abbrev  0x00000000000042d5      0x1da build/cooja/mtype599.a(packetbuf.o)
 .debug_abbrev  0x00000000000044af      0x1d5 build/cooja/mtype599.a(netstack.o)
 .debug_abbrev  0x0000000000004684       0xf2 build/cooja/mtype599.a(linkaddr.o)
 .debug_abbrev  0x0000000000004776      0x1ff build/cooja/mtype599.a(csma.o)
 .debug_abbrev  0x0000000000004975      0x269 build/cooja/mtype599.a(csma-output.o)
 .debug_abbrev  0x0000000000004bde      0x272 build/cooja/mtype599.a(uip-ds6.o)
 .debug_abbrev  0x0000000000004e50      0x195 build/cooja/mtype599.a(uip-udp-packet.)
 .debug_abbrev  0x0000000000004fe5      0x2b0 build/cooja/mtype599.a(uip-ds6-route.o)
 .debug_abbrev  0x0000000000005295      0x3a7 build/cooja/mtype599.a(tcpip.o)
 .debug_abbrev  0x000000000000563c      0x2cc build/cooja/mtype599.a(uip6.o)
 .debug_abbrev  0x0000000000005908      0x295 build/cooja/mtype599.a(uip-ds6-nbr.o)
 .debug_abbrev  0x0000000000005b9d      0x232 build/cooja/mtype599.a(uip-nd6.o)
 .debug_abbrev  0x0000000000005dcf      0x1e8 build/cooja/mtype599.a(simple-udp.o)
 .debug_abbrev  0x0000000000005fb7      0x2e2 build/cooja/mtype599.a(sicslowpan.o)
 .debug_abbrev  0x0000000000006299      0x11d build/cooja/mtype599.a(uiplib.o)
 .debug_abbrev  0x00000000000063b6      0x2d2 build/cooja/mtype599.a(rpl.o)
 .debug_abbrev  0x0000000000006688      0x303 build/cooja/mtype599.a(rpl-icmp6.o)
 .debug_abbrev  0x000000000000698b      0x21b build/cooja/mtype599.a(rpl-dag-root.o)
 .debug_abbrev  0x0000000000006ba6       0x6b build/cooja/mtype599.a(watchdog.o)
 .debug_abbrev  0x0000000000006c11       0xcc build/cooja/mtype599.a(int-master.o)
 .debug_abbrev  0x0000000000006cdd      0x184 build/cooja/mtype599.a(coap-timer-defa)
 .debug_abbrev  0x0000000000006e61       0xbf build/cooja/mtype599.a(stimer.o)
 .debug_abbrev  0x0000000000006f20       0xdb build/cooja/mtype599.a(ringbuf.o)
 .debug_abbrev  0x0000000000006ffb       0x61 build/cooja/mtype599.a(assert.o)
 .debug_abbrev  0x000000000000705c      0x201 build/cooja/mtype599.a(nbr-table.o)
 .debug_abbrev  0x000000000000725d      0x22b build/cooja/mtype599.a(link-stats.o)
 .debug_abbrev  0x0000000000007488       0xed build/cooja/mtype599.a(mac-sequence.o)
 .debug_abbrev  0x0000000000007575       0x8d build/cooja/mtype599.a(mac.o)
 .debug_abbrev  0x0000000000007602      0x16c build/cooja/mtype599.a(framer-802154.o)
 .debug_abbrev  0x000000000000776e      0x215 build/cooja/mtype599.a(frame802154.o)
 .debug_abbrev  0x0000000000007983       0xa4 build/cooja/mtype599.a(csma-security.o)
 .debug_abbrev  0x0000000000007a27      0x173 build/cooja/mtype599.a(uipbuf.o)
 .debug_abbrev  0x0000000000007b9a      0x29a build/cooja/mtype599.a(uip-icmp6.o)
 .debug_abbrev  0x0000000000007e34      0x24e build/cooja/mtype599.a(uip-sr.o)
 .debug_abbrev  0x0000000000008082      0x1d4 build/cooja/mtype599.a(uip-packetqueue)
 .debug_abbrev  0x0000000000008256      0x25f build/cooja/mtype599.a(rpl-nbr-policy.)
 .debug_abbrev  0x00000000000084b5      0x31d build/cooja/mtype599.a(rpl-neighbor.o)
 .debug_abbrev  0x00000000000087d2      0x34c build/cooja/mtype599.a(rpl-dag.o)
 .debug_abbrev  0x0000000000008b1e      0x297 build/cooja/mtype599.a(rpl-timers.o)
 .debug_abbrev  0x0000000000008db5      0x2f9 build/cooja/mtype599.a(rpl-ext-header.)
 .debug_abbrev  0x00000000000090ae      0x1e5 build/cooja/mtype599.a(rpl-mrhof.o)

.debug_line     0x0000000000000000     0xa5b1
 *(.debug_line .debug_line.* .debug_line_end)
 .debug_line    0x0000000000000000      0x3e7 temperature.o
 .debug_line    0x00000000000003e7      0x323 build/cooja/mtype599.o
 .debug_line    0x000000000000070a       0xf5 build/cooja/mtype599.a(simEnvChange.o)
 .debug_line    0x00000000000007ff       0xd4 build/cooja/mtype599.a(cooja_mt.o)
 .debug_line    0x00000000000008d3       0xcb build/cooja/mtype599.a(cooja_mtarch.o)
 .debug_line    0x000000000000099e       0xdd build/cooja/mtype599.a(rtimer-arch.o)
 .debug_line    0x0000000000000a7b       0xe4 build/cooja/mtype599.a(beep.o)
 .debug_line    0x0000000000000b5f       0xea build/cooja/mtype599.a(leds-arch.o)
 .debug_line    0x0000000000000c49       0x9b build/cooja/mtype599.a(moteid.o)
 .debug_line    0x0000000000000ce4       0xd7 build/cooja/mtype599.a(pir-sensor.o)
 .debug_line    0x0000000000000dbb       0xdc build/cooja/mtype599.a(rs232.o)
 .debug_line    0x0000000000000e97       0xd7 build/cooja/mtype599.a(vib-sensor.o)
 .debug_line    0x0000000000000f6e       0xd5 build/cooja/mtype599.a(clock.o)
 .debug_line    0x0000000000001043      0x12b build/cooja/mtype599.a(cooja-log.o)
 .debug_line    0x000000000000116e      0x124 build/cooja/mtype599.a(cfs-cooja.o)
 .debug_line    0x0000000000001292      0x2aa build/cooja/mtype599.a(cooja-radio.o)
 .debug_line    0x000000000000153c       0xd6 build/cooja/mtype599.a(eeprom.o)
 .debug_line    0x0000000000001612       0x50 build/cooja/mtype599.a(random.o)
 .debug_line    0x0000000000001662      0x126 build/cooja/mtype599.a(sensors.o)
 .debug_line    0x0000000000001788      0x128 build/cooja/mtype599.a(leds.o)
 .debug_line    0x00000000000018b0      0x169 build/cooja/mtype599.a(gpio-hal-arch.o)
 .debug_line    0x0000000000001a19      0x1a3 build/cooja/mtype599.a(buttons.o)
 .debug_line    0x0000000000001bbc      0x1a5 build/cooja/mtype599.a(res_temperature)
 .debug_line    0x0000000000001d61      0x202 build/cooja/mtype599.a(coap-blocking-a)
 .debug_line    0x0000000000001f63      0x357 build/cooja/mtype599.a(coap-engine.o)
 .debug_line    0x00000000000022ba      0x214 build/cooja/mtype599.a(coap-res-well-k)
 .debug_line    0x00000000000024ce      0x30e build/cooja/mtype599.a(coap-observe.o)
 .debug_line    0x00000000000027dc      0x38e build/cooja/mtype599.a(coap-uip.o)
 .debug_line    0x0000000000002b6a      0x10f build/cooja/mtype599.a(coap-timer.o)
 .debug_line    0x0000000000002c79      0x1e4 build/cooja/mtype599.a(coap-transactio)
 .debug_line    0x0000000000002e5d      0x563 build/cooja/mtype599.a(coap.o)
 .debug_line    0x00000000000033c0      0x3c9 build/cooja/mtype599.a(contiki-main.o)
 .debug_line    0x0000000000003789       0x9d build/cooja/mtype599.a(autostart.o)
 .debug_line    0x0000000000003826      0x181 build/cooja/mtype599.a(ctimer.o)
 .debug_line    0x00000000000039a7      0x16a build/cooja/mtype599.a(log.o)
 .debug_line    0x0000000000003b11       0x6d build/cooja/mtype599.a(energest.o)
 .debug_line    0x0000000000003b7e      0x1a4 build/cooja/mtype599.a(etimer.o)
 .debug_line    0x0000000000003d22       0x8a build/cooja/mtype599.a(node-id.o)
 .debug_line    0x0000000000003dac       0x8f build/cooja/mtype599.a(rtimer.o)
 .debug_line    0x0000000000003e3b      0x187 build/cooja/mtype599.a(process.o)
 .debug_line    0x0000000000003fc2       0xa7 build/cooja/mtype599.a(timer.o)
 .debug_line    0x0000000000004069      0x119 build/cooja/mtype599.a(list.o)
 .debug_line    0x0000000000004182       0xc2 build/cooja/mtype599.a(memb.o)
 .debug_line    0x0000000000004244      0x217 build/cooja/mtype599.a(button-hal.o)
 .debug_line    0x000000000000445b      0x130 build/cooja/mtype599.a(serial-line.o)
 .debug_line    0x000000000000458b       0xc4 build/cooja/mtype599.a(gpio-hal.o)
 .debug_line    0x000000000000464f       0xfa build/cooja/mtype599.a(queuebuf.o)
 .debug_line    0x0000000000004749      0x112 build/cooja/mtype599.a(packetbuf.o)
 .debug_line    0x000000000000485b      0x135 build/cooja/mtype599.a(netstack.o)
 .debug_line    0x0000000000004990       0x7d build/cooja/mtype599.a(linkaddr.o)
 .debug_line    0x0000000000004a0d      0x1ae build/cooja/mtype599.a(csma.o)
 .debug_line    0x0000000000004bbb      0x389 build/cooja/mtype599.a(csma-output.o)
 .debug_line    0x0000000000004f44      0x35a build/cooja/mtype599.a(uip-ds6.o)
 .debug_line    0x000000000000529e       0xde build/cooja/mtype599.a(uip-udp-packet.)
 .debug_line    0x000000000000537c      0x230 build/cooja/mtype599.a(uip-ds6-route.o)
 .debug_line    0x00000000000055ac      0x346 build/cooja/mtype599.a(tcpip.o)
 .debug_line    0x00000000000058f2      0x598 build/cooja/mtype599.a(uip6.o)
 .debug_line    0x0000000000005e8a      0x2a2 build/cooja/mtype599.a(uip-ds6-nbr.o)
 .debug_line    0x000000000000612c      0x2c7 build/cooja/mtype599.a(uip-nd6.o)
 .debug_line    0x00000000000063f3      0x13b build/cooja/mtype599.a(simple-udp.o)
 .debug_line    0x000000000000652e      0x9f1 build/cooja/mtype599.a(sicslowpan.o)
 .debug_line    0x0000000000006f1f      0x1d1 build/cooja/mtype599.a(uiplib.o)
 .debug_line    0x00000000000070f0      0x315 build/cooja/mtype599.a(rpl.o)
 .debug_line    0x0000000000007405      0x428 build/cooja/mtype599.a(rpl-icmp6.o)
 .debug_line    0x000000000000782d      0x1ec build/cooja/mtype599.a(rpl-dag-root.o)
 .debug_line    0x0000000000007a19       0xa1 build/cooja/mtype599.a(watchdog.o)
 .debug_line    0x0000000000007aba       0xa7 build/cooja/mtype599.a(int-master.o)
 .debug_line    0x0000000000007b61      0x165 build/cooja/mtype599.a(coap-timer-defa)
 .debug_line    0x0000000000007cc6       0x7a build/cooja/mtype599.a(stimer.o)
 .debug_line    0x0000000000007d40       0x9d build/cooja/mtype599.a(ringbuf.o)
 .debug_line    0x0000000000007ddd       0x4e build/cooja/mtype599.a(assert.o)
 .debug_line    0x0000000000007e2b      0x24f build/cooja/mtype599.a(nbr-table.o)
 .debug_line    0x000000000000807a      0x218 build/cooja/mtype599.a(link-stats.o)
 .debug_line    0x0000000000008292      0x120 build/cooja/mtype599.a(mac-sequence.o)
 .debug_line    0x00000000000083b2       0x59 build/cooja/mtype599.a(mac.o)
 .debug_line    0x000000000000840b      0x18c build/cooja/mtype599.a(framer-802154.o)
 .debug_line    0x0000000000008597      0x2c7 build/cooja/mtype599.a(frame802154.o)
 .debug_line    0x000000000000885e       0xc1 build/cooja/mtype599.a(csma-security.o)
 .debug_line    0x000000000000891f      0x14f build/cooja/mtype599.a(uipbuf.o)
 .debug_line    0x0000000000008a6e      0x2fb build/cooja/mtype599.a(uip-icmp6.o)
 .debug_line    0x0000000000008d69      0x309 build/cooja/mtype599.a(uip-sr.o)
 .debug_line    0x0000000000009072      0x176 build/cooja/mtype599.a(uip-packetqueue)
 .debug_line    0x00000000000091e8      0x1f6 build/cooja/mtype599.a(rpl-nbr-policy.)
 .debug_line    0x00000000000093de      0x38e build/cooja/mtype599.a(rpl-neighbor.o)
 .debug_line    0x000000000000976c      0x428 build/cooja/mtype599.a(rpl-dag.o)
 .debug_line    0x0000000000009b94      0x30e build/cooja/mtype599.a(rpl-timers.o)
 .debug_line    0x0000000000009ea2      0x498 build/cooja/mtype599.a(rpl-ext-header.)
 .debug_line    0x000000000000a33a      0x277 build/cooja/mtype599.a(rpl-mrhof.o)

.debug_frame
 *(.debug_frame)

.debug_str      0x0000000000000000     0x9d0d
 *(.debug_str)
 .debug_str     0x0000000000000000      0xc61 temperature.o
                                        0xfe6 (size before relaxing)
 .debug_str     0x0000000000000c61     0x175f build/cooja/mtype599.o
                                       0x1975 (size before relaxing)
 .debug_str     0x00000000000023c0       0x33 build/cooja/mtype599.a(simEnvChange.o)
                                        0x20d (size before relaxing)
 .debug_str     0x00000000000023f3       0x5b build/cooja/mtype599.a(cooja_mt.o)
                                        0x20e (size before relaxing)
 .debug_str     0x000000000000244e       0x9a build/cooja/mtype599.a(cooja_mtarch.o)
                                        0x213 (size before relaxing)
 .debug_str     0x00000000000024e8      0x112 build/cooja/mtype599.a(rtimer-arch.o)
                                        0x260 (size before relaxing)
 .debug_str     0x00000000000025fa       0xc9 build/cooja/mtype599.a(beep.o)
                                        0x257 (size before relaxing)
 .debug_str     0x00000000000026c3       0xa1 build/cooja/mtype599.a(leds-arch.o)
                                        0x264 (size before relaxing)
 .debug_str     0x0000000000002764       0x4c build/cooja/mtype599.a(moteid.o)
                                        0x20d (size before relaxing)
 .debug_str     0x00000000000027b0       0x5a build/cooja/mtype599.a(pir-sensor.o)
                                        0x244 (size before relaxing)
 .debug_str     0x000000000000280a       0xc6 build/cooja/mtype599.a(rs232.o)
                                        0x298 (size before relaxing)
 .debug_str     0x00000000000028d0       0x5a build/cooja/mtype599.a(vib-sensor.o)
                                        0x244 (size before relaxing)
 .debug_str     0x000000000000292a       0x76 build/cooja/mtype599.a(clock.o)
                                        0x239 (size before relaxing)
 .debug_str     0x00000000000029a0       0xdc build/cooja/mtype599.a(cooja-log.o)
                                        0x2c4 (size before relaxing)
 .debug_str     0x0000000000002a7c      0x111 build/cooja/mtype599.a(cfs-cooja.o)
                                        0x2da (size before relaxing)
 .debug_str     0x0000000000002b8d      0x77d build/cooja/mtype599.a(cooja-radio.o)
                                        0xa7e (size before relaxing)
 .debug_str     0x000000000000330a       0x9e build/cooja/mtype599.a(eeprom.o)
                                        0x25a (size before relaxing)
 .debug_str     0x00000000000033a8       0x39 build/cooja/mtype599.a(random.o)
                                        0x172 (size before relaxing)
 .debug_str     0x00000000000033e1       0x9f build/cooja/mtype599.a(sensors.o)
                                        0x2a2 (size before relaxing)
 .debug_str     0x0000000000003480       0x90 build/cooja/mtype599.a(leds.o)
                                        0x22d (size before relaxing)
 .debug_str     0x0000000000003510      0x2ab build/cooja/mtype599.a(gpio-hal-arch.o)
                                        0x41f (size before relaxing)
 .debug_str     0x00000000000037bb      0x112 build/cooja/mtype599.a(buttons.o)
                                        0x3db (size before relaxing)
 .debug_str     0x00000000000038cd      0x424 build/cooja/mtype599.a(res_temperature)
                                        0xc49 (size before relaxing)
 .debug_str     0x0000000000003cf1       0xba build/cooja/mtype599.a(coap-blocking-a)
                                        0x797 (size before relaxing)
 .debug_str     0x0000000000003dab      0x31d build/cooja/mtype599.a(coap-engine.o)
                                        0xe1c (size before relaxing)
 .debug_str     0x00000000000040c8       0x6e build/cooja/mtype599.a(coap-res-well-k)
                                        0xbf9 (size before relaxing)
 .debug_str     0x0000000000004136      0x1f9 build/cooja/mtype599.a(coap-observe.o)
                                        0xd0a (size before relaxing)
 .debug_str     0x000000000000432f      0x218 build/cooja/mtype599.a(coap-uip.o)
                                        0xa0d (size before relaxing)
 .debug_str     0x0000000000004547       0xbd build/cooja/mtype599.a(coap-timer.o)
                                        0x2c4 (size before relaxing)
 .debug_str     0x0000000000004604      0x122 build/cooja/mtype599.a(coap-transactio)
                                        0x847 (size before relaxing)
 .debug_str     0x0000000000004726      0x5e4 build/cooja/mtype599.a(coap.o)
                                        0xe76 (size before relaxing)
 .debug_str     0x0000000000004d0a      0x4d0 build/cooja/mtype599.a(contiki-main.o)
                                        0xd4b (size before relaxing)
 .debug_str     0x00000000000051da       0x3e build/cooja/mtype599.a(autostart.o)
                                        0x1ce (size before relaxing)
 .debug_str     0x0000000000005218       0xc9 build/cooja/mtype599.a(ctimer.o)
                                        0x2cf (size before relaxing)
 .debug_str     0x00000000000052e1      0x1b7 build/cooja/mtype599.a(log.o)
                                        0x382 (size before relaxing)
 .debug_str     0x0000000000005498       0x53 build/cooja/mtype599.a(energest.o)
                                        0x195 (size before relaxing)
 .debug_str     0x00000000000054eb      0x13c build/cooja/mtype599.a(etimer.o)
                                        0x342 (size before relaxing)
 .debug_str     0x0000000000005627       0x2a build/cooja/mtype599.a(node-id.o)
                                        0x192 (size before relaxing)
 .debug_str     0x0000000000005651       0xb6 build/cooja/mtype599.a(rtimer.o)
                                        0x219 (size before relaxing)
 .debug_str     0x0000000000005707      0x15a build/cooja/mtype599.a(process.o)
                                        0x304 (size before relaxing)
 .debug_str     0x0000000000005861       0x1b build/cooja/mtype599.a(timer.o)
                                        0x1bd (size before relaxing)
 .debug_str     0x000000000000587c       0xba build/cooja/mtype599.a(list.o)
                                        0x214 (size before relaxing)
 .debug_str     0x0000000000005936       0x60 build/cooja/mtype599.a(memb.o)
                                        0x1ae (size before relaxing)
 .debug_str     0x0000000000005996      0x1cf build/cooja/mtype599.a(button-hal.o)
                                        0x4e3 (size before relaxing)
 .debug_str     0x0000000000005b65       0xa0 build/cooja/mtype599.a(serial-line.o)
                                        0x28d (size before relaxing)
 .debug_str     0x0000000000005c05       0xf2 build/cooja/mtype599.a(gpio-hal.o)
                                        0x2e3 (size before relaxing)
 .debug_str     0x0000000000005cf7      0x1d0 build/cooja/mtype599.a(queuebuf.o)
                                        0x503 (size before relaxing)
 .debug_str     0x0000000000005ec7      0x1ba build/cooja/mtype599.a(packetbuf.o)
                                        0x540 (size before relaxing)
 .debug_str     0x0000000000006081      0x16d build/cooja/mtype599.a(netstack.o)
                                        0x46e (size before relaxing)
 .debug_str     0x00000000000061ee       0x56 build/cooja/mtype599.a(linkaddr.o)
                                        0x1cf (size before relaxing)
 .debug_str     0x0000000000006244       0x95 build/cooja/mtype599.a(csma.o)
                                        0x7c6 (size before relaxing)
 .debug_str     0x00000000000062d9      0x288 build/cooja/mtype599.a(csma-output.o)
                                        0x866 (size before relaxing)
 .debug_str     0x0000000000006561      0x3f5 build/cooja/mtype599.a(uip-ds6.o)
                                        0x700 (size before relaxing)
 .debug_str     0x0000000000006956       0x7a build/cooja/mtype599.a(uip-udp-packet.)
                                        0x2a0 (size before relaxing)
 .debug_str     0x00000000000069d0      0x228 build/cooja/mtype599.a(uip-ds6-route.o)
                                        0x5f3 (size before relaxing)
 .debug_str     0x0000000000006bf8      0x2b5 build/cooja/mtype599.a(tcpip.o)
                                        0xa02 (size before relaxing)
 .debug_str     0x0000000000006ead      0x1f4 build/cooja/mtype599.a(uip6.o)
                                        0xa40 (size before relaxing)
 .debug_str     0x00000000000070a1      0x202 build/cooja/mtype599.a(uip-ds6-nbr.o)
                                        0x89f (size before relaxing)
 .debug_str     0x00000000000072a3      0x123 build/cooja/mtype599.a(uip-nd6.o)
                                        0x60c (size before relaxing)
 .debug_str     0x00000000000073c6       0xb7 build/cooja/mtype599.a(simple-udp.o)
                                        0x450 (size before relaxing)
 .debug_str     0x000000000000747d      0x58f build/cooja/mtype599.a(sicslowpan.o)
                                        0xf3d (size before relaxing)
 .debug_str     0x0000000000007a0c       0x96 build/cooja/mtype599.a(uiplib.o)
                                        0x219 (size before relaxing)
 .debug_str     0x0000000000007aa2      0x2b8 build/cooja/mtype599.a(rpl.o)
                                        0xbb4 (size before relaxing)
 .debug_str     0x0000000000007d5a      0x1e3 build/cooja/mtype599.a(rpl-icmp6.o)
                                        0xc74 (size before relaxing)
 .debug_str     0x0000000000007f3d       0xa7 build/cooja/mtype599.a(rpl-dag-root.o)
                                        0x865 (size before relaxing)
 .debug_str     0x0000000000007fe4       0x7c build/cooja/mtype599.a(watchdog.o)
                                        0x1c8 (size before relaxing)
 .debug_str     0x0000000000008060       0x8e build/cooja/mtype599.a(int-master.o)
                                        0x1f1 (size before relaxing)
 .debug_str     0x00000000000080ee       0x73 build/cooja/mtype599.a(coap-timer-defa)
                                        0x2b1 (size before relaxing)
 .debug_str     0x0000000000008161       0x72 build/cooja/mtype599.a(stimer.o)
                                        0x1c1 (size before relaxing)
 .debug_str     0x00000000000081d3       0x60 build/cooja/mtype599.a(ringbuf.o)
                                        0x1d0 (size before relaxing)
 .debug_str     0x0000000000008233       0x2c build/cooja/mtype599.a(assert.o)
                                        0x16a (size before relaxing)
 .debug_str     0x000000000000825f      0x272 build/cooja/mtype599.a(nbr-table.o)
                                        0x5b6 (size before relaxing)
 .debug_str     0x00000000000084d1      0x12f build/cooja/mtype599.a(link-stats.o)
                                        0x6ca (size before relaxing)
 .debug_str     0x0000000000008600       0x6c build/cooja/mtype599.a(mac-sequence.o)
                                        0x390 (size before relaxing)
 .debug_str     0x000000000000866c       0x3b build/cooja/mtype599.a(mac.o)
                                        0x19b (size before relaxing)
 .debug_str     0x00000000000086a7      0x233 build/cooja/mtype599.a(framer-802154.o)
                                        0x5d8 (size before relaxing)
 .debug_str     0x00000000000088da      0x1f8 build/cooja/mtype599.a(frame802154.o)
                                        0x587 (size before relaxing)
 .debug_str     0x0000000000008ad2       0x61 build/cooja/mtype599.a(csma-security.o)
                                        0x368 (size before relaxing)
 .debug_str     0x0000000000008b33      0x1b0 build/cooja/mtype599.a(uipbuf.o)
                                        0x466 (size before relaxing)
 .debug_str     0x0000000000008ce3      0x1f3 build/cooja/mtype599.a(uip-icmp6.o)
                                        0x933 (size before relaxing)
 .debug_str     0x0000000000008ed6      0x181 build/cooja/mtype599.a(uip-sr.o)
                                        0x728 (size before relaxing)
 .debug_str     0x0000000000009057       0xf9 build/cooja/mtype599.a(uip-packetqueue)
                                        0x352 (size before relaxing)
 .debug_str     0x0000000000009150       0xaa build/cooja/mtype599.a(rpl-nbr-policy.)
                                        0x9c6 (size before relaxing)
 .debug_str     0x00000000000091fa      0x294 build/cooja/mtype599.a(rpl-neighbor.o)
                                        0xa3c (size before relaxing)
 .debug_str     0x000000000000948e      0x2d6 build/cooja/mtype599.a(rpl-dag.o)
                                        0xb64 (size before relaxing)
 .debug_str     0x0000000000009764      0x327 build/cooja/mtype599.a(rpl-timers.o)
                                        0xa30 (size before relaxing)
 .debug_str     0x0000000000009a8b      0x1b8 build/cooja/mtype599.a(rpl-ext-header.)
                                        0xf75 (size before relaxing)
 .debug_str     0x0000000000009c43       0xca build/cooja/mtype599.a(rpl-mrhof.o)
                                        0x72d (size before relaxing)

.debug_loc
 *(.debug_loc)

.debug_macinfo
 *(.debug_macinfo)

.debug_weaknames
 *(.debug_weaknames)

.debug_funcnames
 *(.debug_funcnames)

.debug_typenames
 *(.debug_typenames)

.debug_varnames
 *(.debug_varnames)

.debug_pubtypes
 *(.debug_pubtypes)

.debug_ranges   0x0000000000000000      0x100
 *(.debug_ranges)
 .debug_ranges  0x0000000000000000       0x18 build/cooja/mtype599.a(etimer.o)
 .debug_ranges  0x0000000000000018       0x30 build/cooja/mtype599.a(csma-output.o)
 .debug_ranges  0x0000000000000048       0x18 build/cooja/mtype599.a(tcpip.o)
 .debug_ranges  0x0000000000000060       0x28 build/cooja/mtype599.a(uip-nd6.o)
 .debug_ranges  0x0000000000000088       0x48 build/cooja/mtype599.a(sicslowpan.o)
 .debug_ranges  0x00000000000000d0       0x30 build/cooja/mtype599.a(nbr-table.o)

.debug_macro
 *(.debug_macro)

.gnu.attributes
 *(.gnu.attributes)

/DISCARD/
 *(.note.GNU-stack)
 *(.gnu_debuglink)
 *(.gnu.lto_*)
OUTPUT(build/cooja/mtype599.cooja elf32-i386)
