Archive member included to satisfy reference by file (symbol)

build/cooja/mtype308.a(simEnvChange.o)
                              build/cooja/mtype308.o (simDontFallAsleep)
build/cooja/mtype308.a(cooja_mt.o)
                              build/cooja/mtype308.o (cooja_mt_start)
build/cooja/mtype308.a(cooja_mtarch.o)
                              build/cooja/mtype308.a(cooja_mt.o) (cooja_mtarch_start)
build/cooja/mtype308.a(rtimer-arch.o)
                              build/cooja/mtype308.o (rtimer_arch_check)
build/cooja/mtype308.a(beep.o)
                              build/cooja/mtype308.o (beep_interface)
build/cooja/mtype308.a(leds-arch.o)
                              build/cooja/mtype308.o (leds_interface)
build/cooja/mtype308.a(moteid.o)
                              build/cooja/mtype308.o (moteid_interface)
build/cooja/mtype308.a(pir-sensor.o)
                              build/cooja/mtype308.o (pir_interface)
build/cooja/mtype308.a(rs232.o)
                              build/cooja/mtype308.o (rs232_interface)
build/cooja/mtype308.a(vib-sensor.o)
                              build/cooja/mtype308.o (vib_interface)
build/cooja/mtype308.a(clock.o)
                              build/cooja/mtype308.o (clock_interface)
build/cooja/mtype308.a(cooja-log.o)
                              build/cooja/mtype308.o (simlog_interface)
build/cooja/mtype308.a(cfs-cooja.o)
                              build/cooja/mtype308.o (cfs_interface)
build/cooja/mtype308.a(cooja-radio.o)
                              build/cooja/mtype308.o (radio_interface)
build/cooja/mtype308.a(eeprom.o)
                              build/cooja/mtype308.o (eeprom_interface)
build/cooja/mtype308.a(random.o)
                              build/cooja/mtype308.a(moteid.o) (random_init)
build/cooja/mtype308.a(sensors.o)
                              build/cooja/mtype308.a(pir-sensor.o) (sensors_changed)
build/cooja/mtype308.a(leds.o)
                              build/cooja/mtype308.a(leds-arch.o) (leds_get)
build/cooja/mtype308.a(gpio-hal-arch.o)
                              build/cooja/mtype308.a(leds-arch.o) (gpio_hal_arch_register_pin_callback)
build/cooja/mtype308.a(buttons.o)
                              build/cooja/mtype308.o (button_interface)
build/cooja/mtype308.a(res_temperature)
                              client.o (res_temperature)
build/cooja/mtype308.a(coap-blocking-a)
                              client.o (coap_blocking_request)
build/cooja/mtype308.a(coap-engine.o)
                              client.o (coap_activate_resource)
build/cooja/mtype308.a(coap-res-well-k)
                              build/cooja/mtype308.a(coap-engine.o) (res_well_known_core)
build/cooja/mtype308.a(coap-observe.o)
                              build/cooja/mtype308.a(coap-engine.o) (coap_remove_observer_by_mid)
build/cooja/mtype308.a(coap-uip.o)
                              build/cooja/mtype308.a(coap-observe.o) (coap_endpoint_copy)
build/cooja/mtype308.a(coap-timer.o)
                              build/cooja/mtype308.a(coap-engine.o) (coap_timer_set)
build/cooja/mtype308.a(coap-transactio)
                              build/cooja/mtype308.a(coap-blocking-a) (coap_send_transaction)
build/cooja/mtype308.a(coap.o)
                              build/cooja/mtype308.a(coap-engine.o) (coap_status_code)
build/cooja/mtype308.a(contiki-main.o)
                              build/cooja/mtype308.o (main)
build/cooja/mtype308.a(autostart.o)
                              build/cooja/mtype308.a(contiki-main.o) (autostart_start)
build/cooja/mtype308.a(ctimer.o)
                              build/cooja/mtype308.a(contiki-main.o) (ctimer_init)
build/cooja/mtype308.a(log.o)
                              build/cooja/mtype308.a(contiki-main.o) (curr_log_level_main)
build/cooja/mtype308.a(energest.o)
                              build/cooja/mtype308.a(contiki-main.o) (energest_init)
build/cooja/mtype308.a(etimer.o)
                              build/cooja/mtype308.a(contiki-main.o) (etimer_process)
build/cooja/mtype308.a(node-id.o)
                              build/cooja/mtype308.a(contiki-main.o) (node_id)
build/cooja/mtype308.a(rtimer.o)
                              build/cooja/mtype308.a(contiki-main.o) (rtimer_init)
build/cooja/mtype308.a(process.o)
                              build/cooja/mtype308.a(coap-blocking-a) (process_current)
build/cooja/mtype308.a(timer.o)
                              build/cooja/mtype308.a(etimer.o) (timer_set)
build/cooja/mtype308.a(list.o)
                              build/cooja/mtype308.a(coap-engine.o) (list_init)
build/cooja/mtype308.a(memb.o)
                              build/cooja/mtype308.a(coap-observe.o) (memb_alloc)
build/cooja/mtype308.a(button-hal.o)
                              build/cooja/mtype308.o (button_hal_init)
build/cooja/mtype308.a(serial-line.o)
                              build/cooja/mtype308.a(rs232.o) (serial_line_input_byte)
build/cooja/mtype308.a(gpio-hal.o)
                              build/cooja/mtype308.a(button-hal.o) (gpio_hal_register_handler)
build/cooja/mtype308.a(queuebuf.o)
                              build/cooja/mtype308.a(contiki-main.o) (queuebuf_init)
build/cooja/mtype308.a(packetbuf.o)
                              build/cooja/mtype308.a(cooja-radio.o) (packetbuf_clear)
build/cooja/mtype308.a(netstack.o)
                              build/cooja/mtype308.a(contiki-main.o) (netstack_init)
build/cooja/mtype308.a(linkaddr.o)
                              build/cooja/mtype308.a(contiki-main.o) (linkaddr_node_addr)
build/cooja/mtype308.a(csma.o)
                              build/cooja/mtype308.a(cooja-radio.o) (csma_driver)
build/cooja/mtype308.a(csma-output.o)
                              build/cooja/mtype308.a(csma.o) (csma_output_packet)
build/cooja/mtype308.a(uip-ds6.o)
                              build/cooja/mtype308.a(contiki-main.o) (uip_ds6_get_link_local)
build/cooja/mtype308.a(uip-udp-packet.)
                              build/cooja/mtype308.a(coap-uip.o) (uip_udp_packet_sendto)
build/cooja/mtype308.a(uip-ds6-route.o)
                              build/cooja/mtype308.a(uip-ds6.o) (uip_ds6_route_init)
build/cooja/mtype308.a(tcpip.o)
                              build/cooja/mtype308.a(coap-uip.o) (tcpip_event)
build/cooja/mtype308.a(uip6.o)
                              build/cooja/mtype308.a(contiki-main.o) (uip_lladdr)
build/cooja/mtype308.a(uip-ds6-nbr.o)
                              build/cooja/mtype308.a(uip-ds6.o) (uip_ds6_neighbors_init)
build/cooja/mtype308.a(uip-nd6.o)
                              build/cooja/mtype308.a(uip6.o) (uip_nd6_init)
build/cooja/mtype308.a(simple-udp.o)
                              client.o (simple_udp_sendto)
build/cooja/mtype308.a(sicslowpan.o)
                              build/cooja/mtype308.a(contiki-main.o) (sicslowpan_driver)
build/cooja/mtype308.a(uiplib.o)
                              build/cooja/mtype308.a(coap-uip.o) (uiplib_ip6addrconv)
build/cooja/mtype308.a(rpl.o)
                              client.o (rpl_lite_driver)
build/cooja/mtype308.a(rpl-icmp6.o)
                              build/cooja/mtype308.a(rpl.o) (rpl_icmp6_init)
build/cooja/mtype308.a(rpl-dag-root.o)
                              build/cooja/mtype308.a(rpl.o) (rpl_dag_root_is_root)
build/cooja/mtype308.a(watchdog.o)
                              build/cooja/mtype308.a(contiki-main.o) (watchdog_init)
build/cooja/mtype308.a(int-master.o)
                              build/cooja/mtype308.a(button-hal.o) (int_master_read_and_disable)
build/cooja/mtype308.a(coap-timer-defa)
                              build/cooja/mtype308.a(coap-timer.o) (coap_timer_default_driver)
build/cooja/mtype308.a(stimer.o)
                              build/cooja/mtype308.a(uip-ds6.o) (stimer_set)
build/cooja/mtype308.a(ringbuf.o)
                              build/cooja/mtype308.a(serial-line.o) (ringbuf_init)
build/cooja/mtype308.a(assert.o)
                              build/cooja/mtype308.a(csma-output.o) (_xassert)
build/cooja/mtype308.a(nbr-table.o)
                              build/cooja/mtype308.a(uip-ds6-nbr.o) (nbr_table_register)
build/cooja/mtype308.a(link-stats.o)
                              build/cooja/mtype308.a(sicslowpan.o) (link_stats_packet_sent)
build/cooja/mtype308.a(mac-sequence.o)
                              build/cooja/mtype308.a(csma.o) (mac_sequence_is_duplicate)
build/cooja/mtype308.a(mac.o)
                              build/cooja/mtype308.a(csma-output.o) (mac_call_sent_callback)
build/cooja/mtype308.a(framer-802154.o)
                              build/cooja/mtype308.a(csma.o) (framer_802154)
build/cooja/mtype308.a(frame802154.o)
                              build/cooja/mtype308.a(framer-802154.o) (frame802154_get_pan_id)
build/cooja/mtype308.a(csma-security.o)
                              build/cooja/mtype308.a(csma-output.o) (csma_security_create_frame)
build/cooja/mtype308.a(uipbuf.o)
                              build/cooja/mtype308.a(tcpip.o) (uipbuf_clear)
build/cooja/mtype308.a(uip-icmp6.o)
                              build/cooja/mtype308.a(uip6.o) (uip_icmp6_input)
build/cooja/mtype308.a(uip-sr.o)
                              build/cooja/mtype308.a(rpl-dag-root.o) (uip_sr_num_nodes)
build/cooja/mtype308.a(uip-packetqueue)
                              build/cooja/mtype308.a(uip-ds6-nbr.o) (uip_packetqueue_new)
build/cooja/mtype308.a(rpl-nbr-policy.)
                              build/cooja/mtype308.a(nbr-table.o) (rpl_nbr_policy_find_removable)
build/cooja/mtype308.a(rpl-neighbor.o)
                              build/cooja/mtype308.a(rpl-icmp6.o) (rpl_neighbor_get_ipaddr)
build/cooja/mtype308.a(rpl-dag.o)
                              build/cooja/mtype308.a(rpl.o) (curr_instance)
build/cooja/mtype308.a(rpl-timers.o)
                              build/cooja/mtype308.a(rpl-dag.o) (rpl_timers_schedule_periodic_dis)
build/cooja/mtype308.a(rpl-ext-header.)
                              build/cooja/mtype308.a(rpl.o) (rpl_ext_header_srh_get_next_hop)
build/cooja/mtype308.a(rpl-mrhof.o)
                              build/cooja/mtype308.a(rpl-dag.o) (rpl_mrhof)
/usr/lib/gcc/i686-linux-gnu/5/libgcc.a(_udivdi3.o)
                              build/cooja/mtype308.a(coap-timer-defa) (__udivdi3)

Allocating common symbols
Common symbol       size              file

simButtonIsDown     0x1               build/cooja/mtype308.a(buttons.o)
simOutDataBuffer    0x7d              build/cooja/mtype308.a(cooja-radio.o)
uip_ds6_prefix_list
                    0x60              build/cooja/mtype308.a(uip-ds6.o)
linkaddr_node_addr  0x8               build/cooja/mtype308.a(linkaddr.o)
simSerialReceivingFlag
                    0x1               build/cooja/mtype308.a(rs232.o)
simEEPROMData       0x400             build/cooja/mtype308.a(eeprom.o)
periodic_timer      0x20              build/cooja/mtype308.a(link-stats.o)
simLoggedLength     0x4               build/cooja/mtype308.a(cooja-log.o)
simSerialReceivingLength
                    0x4               build/cooja/mtype308.a(rs232.o)
simEtimerPending    0x4               build/cooja/mtype308.a(simEnvChange.o)
uip_slen            0x2               build/cooja/mtype308.a(uip6.o)
uip_ds6_timer_periodic
                    0x10              build/cooja/mtype308.a(uip-ds6.o)
eb_per_time_source  0x18              build/cooja/mtype308.a(contiki-main.o)
unicast_per_neighbor_rpl_storing
                    0x18              build/cooja/mtype308.a(contiki-main.o)
simVibChanged       0x1               build/cooja/mtype308.a(vib-sensor.o)
simRtimerPending    0x4               build/cooja/mtype308.a(rtimer-arch.o)
button_hal_periodic_event
                    0x1               build/cooja/mtype308.a(button-hal.o)
uip_ds6_netif_addr_list_offset
                    0x1               build/cooja/mtype308.a(uip-ds6.o)
uip_lladdr          0x8               build/cooja/mtype308.a(uip6.o)
button_hal_press_event
                    0x1               build/cooja/mtype308.a(button-hal.o)
simProcessRunValue  0x4               build/cooja/mtype308.a(simEnvChange.o)
serial_line_event_message
                    0x1               build/cooja/mtype308.a(serial-line.o)
uip_appdata         0x4               build/cooja/mtype308.a(uip6.o)
referenceVar        0x4               build/cooja/mtype308.o
simCurrentTime      0x4               build/cooja/mtype308.a(clock.o)
simVibIsActive      0x1               build/cooja/mtype308.a(vib-sensor.o)
unicast_per_neighbor_rpl_ns
                    0x18              build/cooja/mtype308.a(contiki-main.o)
uip_ds6_if          0xf8              build/cooja/mtype308.a(uip-ds6.o)
uip_flags           0x1               build/cooja/mtype308.a(uip6.o)
uip_ds6_timer_ra    0x8               build/cooja/mtype308.a(uip-ds6.o)
default_common      0x18              build/cooja/mtype308.a(contiki-main.o)
simSerialReceivingData
                    0x800             build/cooja/mtype308.a(rs232.o)
simLoggedFlag       0x1               build/cooja/mtype308.a(cooja-log.o)
packetbuf_attrs     0x1a              build/cooja/mtype308.a(packetbuf.o)
uip_ds6_addr_size   0x1               build/cooja/mtype308.a(uip-ds6.o)
uip_aligned_buf     0x500             build/cooja/mtype308.a(uip6.o)
simRtimerCurrentTicks
                    0x8               build/cooja/mtype308.a(rtimer-arch.o)
simRandomSeed       0x4               build/cooja/mtype308.a(moteid.o)
rpl_multicast_addr  0x10              build/cooja/mtype308.a(rpl.o)
simLoggedData       0x2000            build/cooja/mtype308.a(cooja-log.o)
simEtimerNextExpirationTime
                    0x4               build/cooja/mtype308.a(simEnvChange.o)
uip_len             0x2               build/cooja/mtype308.a(uip6.o)
simButtonChanged    0x1               build/cooja/mtype308.a(buttons.o)
simRtimerNextExpirationTime
                    0x8               build/cooja/mtype308.a(rtimer-arch.o)
simPirIsActive      0x1               build/cooja/mtype308.a(pir-sensor.o)
simInDataBuffer     0x7d              build/cooja/mtype308.a(cooja-radio.o)
simPirChanged       0x1               build/cooja/mtype308.a(pir-sensor.o)
simBeeped           0x1               build/cooja/mtype308.a(beep.o)
tcpip_event         0x1               build/cooja/mtype308.a(tcpip.o)
uip_sappdata        0x4               build/cooja/mtype308.a(uip6.o)
sensors_event       0x1               build/cooja/mtype308.a(sensors.o)
uip_udp_conns       0x100             build/cooja/mtype308.a(uip6.o)
button_hal_release_event
                    0x1               build/cooja/mtype308.a(button-hal.o)
packetbuf_addrs     0x10              build/cooja/mtype308.a(packetbuf.o)
uip_udp_conn        0x4               build/cooja/mtype308.a(uip6.o)
simMoteIDChanged    0x1               build/cooja/mtype308.a(moteid.o)
sensors_flags       0x4               build/cooja/mtype308.o
curr_instance       0x164             build/cooja/mtype308.a(rpl-dag.o)
mote_name           0x4               build/cooja/mtype308.a(res_temperature)
simMoteID           0x4               build/cooja/mtype308.a(moteid.o)
uip_conn            0x4               build/cooja/mtype308.a(uip6.o)

Discarded input sections

 .note.GNU-stack
                0x0000000000000000        0x0 /usr/lib/gcc/i686-linux-gnu/5/../../../i386-linux-gnu/crti.o
 .group         0x0000000000000000        0x8 /usr/lib/gcc/i686-linux-gnu/5/crtbeginS.o
 .group         0x0000000000000000        0x8 /usr/lib/gcc/i686-linux-gnu/5/crtbeginS.o
 .text.__x86.get_pc_thunk.bx
                0x0000000000000000        0x4 /usr/lib/gcc/i686-linux-gnu/5/crtbeginS.o
 .note.GNU-stack
                0x0000000000000000        0x0 /usr/lib/gcc/i686-linux-gnu/5/crtbeginS.o
 .note.GNU-stack
                0x0000000000000000        0x0 client.o
 .note.GNU-stack
                0x0000000000000000        0x0 build/cooja/mtype308.o
 .note.GNU-stack
                0x0000000000000000        0x0 build/cooja/mtype308.a(simEnvChange.o)
 .note.GNU-stack
                0x0000000000000000        0x0 build/cooja/mtype308.a(cooja_mt.o)
 .note.GNU-stack
                0x0000000000000000        0x0 build/cooja/mtype308.a(cooja_mtarch.o)
 .note.GNU-stack
                0x0000000000000000        0x0 build/cooja/mtype308.a(rtimer-arch.o)
 .note.GNU-stack
                0x0000000000000000        0x0 build/cooja/mtype308.a(beep.o)
 .note.GNU-stack
                0x0000000000000000        0x0 build/cooja/mtype308.a(leds-arch.o)
 .note.GNU-stack
                0x0000000000000000        0x0 build/cooja/mtype308.a(moteid.o)
 .note.GNU-stack
                0x0000000000000000        0x0 build/cooja/mtype308.a(pir-sensor.o)
 .note.GNU-stack
                0x0000000000000000        0x0 build/cooja/mtype308.a(rs232.o)
 .note.GNU-stack
                0x0000000000000000        0x0 build/cooja/mtype308.a(vib-sensor.o)
 .note.GNU-stack
                0x0000000000000000        0x0 build/cooja/mtype308.a(clock.o)
 .note.GNU-stack
                0x0000000000000000        0x0 build/cooja/mtype308.a(cooja-log.o)
 .note.GNU-stack
                0x0000000000000000        0x0 build/cooja/mtype308.a(cfs-cooja.o)
 .note.GNU-stack
                0x0000000000000000        0x0 build/cooja/mtype308.a(cooja-radio.o)
 .note.GNU-stack
                0x0000000000000000        0x0 build/cooja/mtype308.a(eeprom.o)
 .note.GNU-stack
                0x0000000000000000        0x0 build/cooja/mtype308.a(random.o)
 .note.GNU-stack
                0x0000000000000000        0x0 build/cooja/mtype308.a(sensors.o)
 .note.GNU-stack
                0x0000000000000000        0x0 build/cooja/mtype308.a(leds.o)
 .note.GNU-stack
                0x0000000000000000        0x0 build/cooja/mtype308.a(gpio-hal-arch.o)
 .note.GNU-stack
                0x0000000000000000        0x0 build/cooja/mtype308.a(buttons.o)
 .note.GNU-stack
                0x0000000000000000        0x0 build/cooja/mtype308.a(res_temperature)
 .note.GNU-stack
                0x0000000000000000        0x0 build/cooja/mtype308.a(coap-blocking-a)
 .note.GNU-stack
                0x0000000000000000        0x0 build/cooja/mtype308.a(coap-engine.o)
 .note.GNU-stack
                0x0000000000000000        0x0 build/cooja/mtype308.a(coap-res-well-k)
 .note.GNU-stack
                0x0000000000000000        0x0 build/cooja/mtype308.a(coap-observe.o)
 .note.GNU-stack
                0x0000000000000000        0x0 build/cooja/mtype308.a(coap-uip.o)
 .note.GNU-stack
                0x0000000000000000        0x0 build/cooja/mtype308.a(coap-timer.o)
 .note.GNU-stack
                0x0000000000000000        0x0 build/cooja/mtype308.a(coap-transactio)
 .note.GNU-stack
                0x0000000000000000        0x0 build/cooja/mtype308.a(coap.o)
 .note.GNU-stack
                0x0000000000000000        0x0 build/cooja/mtype308.a(contiki-main.o)
 .note.GNU-stack
                0x0000000000000000        0x0 build/cooja/mtype308.a(autostart.o)
 .note.GNU-stack
                0x0000000000000000        0x0 build/cooja/mtype308.a(ctimer.o)
 .note.GNU-stack
                0x0000000000000000        0x0 build/cooja/mtype308.a(log.o)
 .note.GNU-stack
                0x0000000000000000        0x0 build/cooja/mtype308.a(energest.o)
 .note.GNU-stack
                0x0000000000000000        0x0 build/cooja/mtype308.a(etimer.o)
 .note.GNU-stack
                0x0000000000000000        0x0 build/cooja/mtype308.a(node-id.o)
 .note.GNU-stack
                0x0000000000000000        0x0 build/cooja/mtype308.a(rtimer.o)
 .note.GNU-stack
                0x0000000000000000        0x0 build/cooja/mtype308.a(process.o)
 .note.GNU-stack
                0x0000000000000000        0x0 build/cooja/mtype308.a(timer.o)
 .note.GNU-stack
                0x0000000000000000        0x0 build/cooja/mtype308.a(list.o)
 .note.GNU-stack
                0x0000000000000000        0x0 build/cooja/mtype308.a(memb.o)
 .note.GNU-stack
                0x0000000000000000        0x0 build/cooja/mtype308.a(button-hal.o)
 .note.GNU-stack
                0x0000000000000000        0x0 build/cooja/mtype308.a(serial-line.o)
 .note.GNU-stack
                0x0000000000000000        0x0 build/cooja/mtype308.a(gpio-hal.o)
 .note.GNU-stack
                0x0000000000000000        0x0 build/cooja/mtype308.a(queuebuf.o)
 .note.GNU-stack
                0x0000000000000000        0x0 build/cooja/mtype308.a(packetbuf.o)
 .note.GNU-stack
                0x0000000000000000        0x0 build/cooja/mtype308.a(netstack.o)
 .note.GNU-stack
                0x0000000000000000        0x0 build/cooja/mtype308.a(linkaddr.o)
 .note.GNU-stack
                0x0000000000000000        0x0 build/cooja/mtype308.a(csma.o)
 .note.GNU-stack
                0x0000000000000000        0x0 build/cooja/mtype308.a(csma-output.o)
 .note.GNU-stack
                0x0000000000000000        0x0 build/cooja/mtype308.a(uip-ds6.o)
 .note.GNU-stack
                0x0000000000000000        0x0 build/cooja/mtype308.a(uip-udp-packet.)
 .note.GNU-stack
                0x0000000000000000        0x0 build/cooja/mtype308.a(uip-ds6-route.o)
 .note.GNU-stack
                0x0000000000000000        0x0 build/cooja/mtype308.a(tcpip.o)
 .note.GNU-stack
                0x0000000000000000        0x0 build/cooja/mtype308.a(uip6.o)
 .note.GNU-stack
                0x0000000000000000        0x0 build/cooja/mtype308.a(uip-ds6-nbr.o)
 .note.GNU-stack
                0x0000000000000000        0x0 build/cooja/mtype308.a(uip-nd6.o)
 .note.GNU-stack
                0x0000000000000000        0x0 build/cooja/mtype308.a(simple-udp.o)
 .note.GNU-stack
                0x0000000000000000        0x0 build/cooja/mtype308.a(sicslowpan.o)
 .note.GNU-stack
                0x0000000000000000        0x0 build/cooja/mtype308.a(uiplib.o)
 .note.GNU-stack
                0x0000000000000000        0x0 build/cooja/mtype308.a(rpl.o)
 .note.GNU-stack
                0x0000000000000000        0x0 build/cooja/mtype308.a(rpl-icmp6.o)
 .note.GNU-stack
                0x0000000000000000        0x0 build/cooja/mtype308.a(rpl-dag-root.o)
 .note.GNU-stack
                0x0000000000000000        0x0 build/cooja/mtype308.a(watchdog.o)
 .note.GNU-stack
                0x0000000000000000        0x0 build/cooja/mtype308.a(int-master.o)
 .note.GNU-stack
                0x0000000000000000        0x0 build/cooja/mtype308.a(coap-timer-defa)
 .note.GNU-stack
                0x0000000000000000        0x0 build/cooja/mtype308.a(stimer.o)
 .note.GNU-stack
                0x0000000000000000        0x0 build/cooja/mtype308.a(ringbuf.o)
 .note.GNU-stack
                0x0000000000000000        0x0 build/cooja/mtype308.a(assert.o)
 .note.GNU-stack
                0x0000000000000000        0x0 build/cooja/mtype308.a(nbr-table.o)
 .note.GNU-stack
                0x0000000000000000        0x0 build/cooja/mtype308.a(link-stats.o)
 .note.GNU-stack
                0x0000000000000000        0x0 build/cooja/mtype308.a(mac-sequence.o)
 .note.GNU-stack
                0x0000000000000000        0x0 build/cooja/mtype308.a(mac.o)
 .note.GNU-stack
                0x0000000000000000        0x0 build/cooja/mtype308.a(framer-802154.o)
 .note.GNU-stack
                0x0000000000000000        0x0 build/cooja/mtype308.a(frame802154.o)
 .note.GNU-stack
                0x0000000000000000        0x0 build/cooja/mtype308.a(csma-security.o)
 .note.GNU-stack
                0x0000000000000000        0x0 build/cooja/mtype308.a(uipbuf.o)
 .note.GNU-stack
                0x0000000000000000        0x0 build/cooja/mtype308.a(uip-icmp6.o)
 .note.GNU-stack
                0x0000000000000000        0x0 build/cooja/mtype308.a(uip-sr.o)
 .note.GNU-stack
                0x0000000000000000        0x0 build/cooja/mtype308.a(uip-packetqueue)
 .note.GNU-stack
                0x0000000000000000        0x0 build/cooja/mtype308.a(rpl-nbr-policy.)
 .note.GNU-stack
                0x0000000000000000        0x0 build/cooja/mtype308.a(rpl-neighbor.o)
 .note.GNU-stack
                0x0000000000000000        0x0 build/cooja/mtype308.a(rpl-dag.o)
 .note.GNU-stack
                0x0000000000000000        0x0 build/cooja/mtype308.a(rpl-timers.o)
 .note.GNU-stack
                0x0000000000000000        0x0 build/cooja/mtype308.a(rpl-ext-header.)
 .note.GNU-stack
                0x0000000000000000        0x0 build/cooja/mtype308.a(rpl-mrhof.o)
 .note.GNU-stack
                0x0000000000000000        0x0 /usr/lib/gcc/i686-linux-gnu/5/libgcc.a(_udivdi3.o)
 .note.GNU-stack
                0x0000000000000000        0x0 /usr/lib/gcc/i686-linux-gnu/5/crtendS.o
 .note.GNU-stack
                0x0000000000000000        0x0 /usr/lib/gcc/i686-linux-gnu/5/../../../i386-linux-gnu/crtn.o

Memory Configuration

Name             Origin             Length             Attributes
*default*        0x0000000000000000 0xffffffffffffffff

Linker script and memory map

LOAD /usr/lib/gcc/i686-linux-gnu/5/../../../i386-linux-gnu/crti.o
LOAD /usr/lib/gcc/i686-linux-gnu/5/crtbeginS.o
LOAD client.o
LOAD build/cooja/mtype308.o
LOAD build/cooja/mtype308.a
LOAD /usr/lib/gcc/i686-linux-gnu/5/libgcc.a
LOAD /usr/lib/gcc/i686-linux-gnu/5/libgcc_s.so
LOAD /usr/lib/gcc/i686-linux-gnu/5/../../../i386-linux-gnu/libc.so
START GROUP
LOAD /lib/i386-linux-gnu/libc.so.6
LOAD /usr/lib/i386-linux-gnu/libc_nonshared.a
LOAD /lib/i386-linux-gnu/ld-linux.so.2
END GROUP
LOAD /usr/lib/gcc/i686-linux-gnu/5/libgcc.a
LOAD /usr/lib/gcc/i686-linux-gnu/5/libgcc_s.so
LOAD /usr/lib/gcc/i686-linux-gnu/5/crtendS.o
LOAD /usr/lib/gcc/i686-linux-gnu/5/../../../i386-linux-gnu/crtn.o
                0x0000000000000114                . = (0x0 + SIZEOF_HEADERS)

.note.gnu.build-id
                0x0000000000000114       0x24
 *(.note.gnu.build-id)
 .note.gnu.build-id
                0x0000000000000114       0x24 /usr/lib/gcc/i686-linux-gnu/5/../../../i386-linux-gnu/crti.o

.hash
 *(.hash)

.gnu.hash       0x0000000000000138     0x15b8
 *(.gnu.hash)
 .gnu.hash      0x0000000000000138     0x15b8 /usr/lib/gcc/i686-linux-gnu/5/../../../i386-linux-gnu/crti.o

.dynsym         0x00000000000016f0     0x2f90
 *(.dynsym)
 .dynsym        0x00000000000016f0     0x2f90 /usr/lib/gcc/i686-linux-gnu/5/../../../i386-linux-gnu/crti.o

.dynstr         0x0000000000004680     0x3726
 *(.dynstr)
 .dynstr        0x0000000000004680     0x3726 /usr/lib/gcc/i686-linux-gnu/5/../../../i386-linux-gnu/crti.o

.gnu.version    0x0000000000007da6      0x5f2
 *(.gnu.version)
 .gnu.version   0x0000000000007da6      0x5f2 /usr/lib/gcc/i686-linux-gnu/5/../../../i386-linux-gnu/crti.o

.gnu.version_d  0x0000000000008398        0x0
 *(.gnu.version_d)
 .gnu.version_d
                0x0000000000008398        0x0 /usr/lib/gcc/i686-linux-gnu/5/../../../i386-linux-gnu/crti.o

.gnu.version_r  0x0000000000008398       0x40
 *(.gnu.version_r)
 .gnu.version_r
                0x0000000000008398       0x40 /usr/lib/gcc/i686-linux-gnu/5/../../../i386-linux-gnu/crti.o

.rel.dyn        0x00000000000083d8     0x9260
 *(.rel.init)
 .rel.init      0x00000000000083d8        0x0 /usr/lib/gcc/i686-linux-gnu/5/../../../i386-linux-gnu/crti.o
 *(.rel.text .rel.text.* .rel.gnu.linkonce.t.*)
 .rel.text      0x00000000000083d8     0x8860 /usr/lib/gcc/i686-linux-gnu/5/../../../i386-linux-gnu/crti.o
 *(.rel.fini)
 .rel.fini      0x0000000000010c38        0x0 /usr/lib/gcc/i686-linux-gnu/5/../../../i386-linux-gnu/crti.o
 *(.rel.rodata .rel.rodata.* .rel.gnu.linkonce.r.*)
 .rel.rodata    0x0000000000010c38      0x598 /usr/lib/gcc/i686-linux-gnu/5/../../../i386-linux-gnu/crti.o
 *(.rel.data.rel.ro .rel.data.rel.ro.* .rel.gnu.linkonce.d.rel.ro.*)
 *(.rel.data .rel.data.* .rel.gnu.linkonce.d.*)
 .rel.data.rel.local
                0x00000000000111d0        0x8 /usr/lib/gcc/i686-linux-gnu/5/../../../i386-linux-gnu/crti.o
 .rel.data      0x00000000000111d8      0x428 /usr/lib/gcc/i686-linux-gnu/5/../../../i386-linux-gnu/crti.o
 *(.rel.tdata .rel.tdata.* .rel.gnu.linkonce.td.*)
 *(.rel.tbss .rel.tbss.* .rel.gnu.linkonce.tb.*)
 *(.rel.ctors)
 *(.rel.dtors)
 *(.rel.got)
 .rel.got       0x0000000000011600       0x28 /usr/lib/gcc/i686-linux-gnu/5/../../../i386-linux-gnu/crti.o
 *(.rel.bss .rel.bss.* .rel.gnu.linkonce.b.*)
 *(.rel.ifunc)
 .rel.ifunc     0x0000000000011628        0x0 /usr/lib/gcc/i686-linux-gnu/5/../../../i386-linux-gnu/crti.o
 .rel.fini_array
                0x0000000000011628        0x8 /usr/lib/gcc/i686-linux-gnu/5/../../../i386-linux-gnu/crti.o
 .rel.init_array
                0x0000000000011630        0x8 /usr/lib/gcc/i686-linux-gnu/5/../../../i386-linux-gnu/crti.o

.rel.plt        0x0000000000011638        0x0
 *(.rel.plt)
 .rel.plt       0x0000000000011638        0x0 /usr/lib/gcc/i686-linux-gnu/5/../../../i386-linux-gnu/crti.o
 *(.rel.iplt)

.init           0x0000000000011638       0x23
 *(SORT(.init))
 .init          0x0000000000011638       0x1e /usr/lib/gcc/i686-linux-gnu/5/../../../i386-linux-gnu/crti.o
                0x0000000000011638                _init
 .init          0x0000000000011656        0x5 /usr/lib/gcc/i686-linux-gnu/5/../../../i386-linux-gnu/crtn.o

.plt            0x0000000000011660       0x10
 *(.plt)
 .plt           0x0000000000011660       0x10 /usr/lib/gcc/i686-linux-gnu/5/../../../i386-linux-gnu/crti.o
 *(.iplt)

.plt.got        0x0000000000011670       0x10
 *(.plt.got)
 .plt.got       0x0000000000011670       0x10 /usr/lib/gcc/i686-linux-gnu/5/../../../i386-linux-gnu/crti.o

.text           0x0000000000011680    0x18c82
 *(.text.unlikely .text.*_unlikely .text.unlikely.*)
 .text.unlikely
                0x0000000000011680        0x0 /usr/lib/gcc/i686-linux-gnu/5/crtbeginS.o
 .text.unlikely
                0x0000000000011680        0x0 /usr/lib/gcc/i686-linux-gnu/5/libgcc.a(_udivdi3.o)
 *(.text.exit .text.exit.*)
 *(.text.startup .text.startup.*)
 *(.text.hot .text.hot.*)
 *(.text .stub .text.* .gnu.linkonce.t.*)
 .text          0x0000000000011680        0x0 /usr/lib/gcc/i686-linux-gnu/5/../../../i386-linux-gnu/crti.o
 .gnu.linkonce.t.__x86.get_pc_thunk.bx
                0x0000000000011680        0x4 /usr/lib/gcc/i686-linux-gnu/5/../../../i386-linux-gnu/crti.o
                0x0000000000011680                __x86.get_pc_thunk.bx
 *fill*         0x0000000000011684        0xc 
 .text          0x0000000000011690      0x11c /usr/lib/gcc/i686-linux-gnu/5/crtbeginS.o
 .text.__x86.get_pc_thunk.dx
                0x00000000000117ac        0x4 /usr/lib/gcc/i686-linux-gnu/5/crtbeginS.o
                0x00000000000117ac                __x86.get_pc_thunk.dx
 .text          0x00000000000117b0      0x551 client.o
                0x00000000000117e1                response_handler
 .text          0x0000000000011d01      0x283 build/cooja/mtype308.o
                0x0000000000011d93                platform_init_stage_one
                0x0000000000011da6                platform_init_stage_two
                0x0000000000011db9                platform_init_stage_three
                0x0000000000011dcc                platform_main_loop
                0x0000000000011e3f                Java_org_contikios_cooja_corecomm_Lib2_init
                0x0000000000011e76                Java_org_contikios_cooja_corecomm_Lib2_getMemory
                0x0000000000011ea9                Java_org_contikios_cooja_corecomm_Lib2_setMemory
                0x0000000000011f09                Java_org_contikios_cooja_corecomm_Lib2_tick
                0x0000000000011f71                Java_org_contikios_cooja_corecomm_Lib2_setReferenceAddress
 .text          0x0000000000011f84       0x65 build/cooja/mtype308.a(simEnvChange.o)
                0x0000000000011f84                doActionsBeforeTick
                0x0000000000011fb6                doActionsAfterTick
 .text          0x0000000000011fe9       0x83 build/cooja/mtype308.a(cooja_mt.o)
                0x0000000000011fe9                cooja_mt_start
                0x0000000000012013                cooja_mt_exec
                0x0000000000012049                cooja_mt_yield
 .text          0x000000000001206c       0xbe build/cooja/mtype308.a(cooja_mtarch.o)
                0x000000000001206c                cooja_mtarch_start
                0x00000000000120df                cooja_sw
                0x0000000000012102                cooja_mtarch_exec
                0x000000000001211f                cooja_mtarch_yield
 .text          0x000000000001212a       0xc5 build/cooja/mtype308.a(rtimer-arch.o)
                0x000000000001212a                rtimer_arch_init
                0x000000000001214e                rtimer_arch_schedule
                0x000000000001217e                rtimer_arch_next
                0x000000000001218e                rtimer_arch_pending
                0x0000000000012198                rtimer_arch_check
                0x00000000000121df                rtimer_arch_now
 .text          0x00000000000121ef       0x81 build/cooja/mtype308.a(beep.o)
                0x00000000000121ef                beep_alarm
                0x00000000000121fc                beep_beep
                0x0000000000012209                beep
                0x0000000000012216                beep_down
                0x0000000000012223                beep_on
                0x0000000000012230                beep_off
                0x000000000001223d                beep_spinup
                0x000000000001224a                beep_quick
                0x0000000000012257                beep_long
 .text          0x0000000000012270       0x65 build/cooja/mtype308.a(leds-arch.o)
                0x0000000000012283                leds_arch_init
 .text          0x00000000000122d5       0x35 build/cooja/mtype308.a(moteid.o)
 .text          0x000000000001230a       0xb7 build/cooja/mtype308.a(pir-sensor.o)
 .text          0x00000000000123c1      0x148 build/cooja/mtype308.a(rs232.o)
                0x00000000000123c1                rs232_init
                0x00000000000123c7                rs232_set_speed
                0x00000000000123d6                rs232_set_input
                0x00000000000123e4                rs232_send
                0x0000000000012408                rs232_print
                0x0000000000012424                slip_arch_writeb
 .text          0x0000000000012509       0xb7 build/cooja/mtype308.a(vib-sensor.o)
 .text          0x00000000000125c0       0x38 build/cooja/mtype308.a(clock.o)
                0x00000000000125c0                clock_init
                0x00000000000125c6                clock_time
                0x00000000000125d0                clock_seconds
                0x00000000000125e6                clock_delay
 .text          0x00000000000125f8      0x219 build/cooja/mtype308.a(cooja-log.o)
                0x00000000000125f8                simlog_char
                0x000000000001263b                simlog
                0x00000000000126b1                log_message
                0x00000000000126e2                log_set_putchar_with_slip
                0x00000000000126f0                log_putchar
                0x000000000001276b                log_puts
                0x0000000000012793                log_printf
 .text          0x0000000000012811      0x2b9 build/cooja/mtype308.a(cfs-cooja.o)
                0x0000000000012811                cfs_open
                0x000000000001287a                cfs_close
                0x0000000000012887                cfs_read
                0x000000000001291c                cfs_write
                0x00000000000129f8                cfs_seek
                0x0000000000012a80                cfs_remove
                0x0000000000012aa4                cfs_opendir
                0x0000000000012aae                cfs_readdir
                0x0000000000012ab8                cfs_closedir
 .text          0x0000000000012aca      0x620 build/cooja/mtype308.a(cooja-radio.o)
                0x0000000000012b0c                radio_set_channel
                0x0000000000012b1a                radio_set_txpower
                0x0000000000012b32                radio_signal_strength_last
                0x0000000000012b3c                radio_signal_strength_current
                0x0000000000012b46                radio_LQI
 .text          0x00000000000130ea       0xee build/cooja/mtype308.a(eeprom.o)
                0x00000000000130ea                eeprom_init
                0x00000000000130f0                eeprom_read
                0x000000000001315e                eeprom_write
 .text          0x00000000000131d8       0x2d build/cooja/mtype308.a(random.o)
                0x00000000000131d8                random_init
                0x00000000000131f8                random_rand
 .text          0x0000000000013205      0x29c build/cooja/mtype308.a(sensors.o)
                0x0000000000013240                sensors_first
                0x000000000001324a                sensors_next
                0x0000000000013264                sensors_changed
                0x0000000000013298                sensors_find
 .text          0x00000000000134a1      0x349 build/cooja/mtype308.a(leds.o)
                0x00000000000134a1                leds_init
                0x00000000000134e8                leds_single_on
                0x0000000000013547                leds_single_off
                0x00000000000135a6                leds_single_toggle
                0x00000000000135d8                leds_on
                0x000000000001365a                leds_off
                0x00000000000136dc                leds_toggle
                0x0000000000013731                leds_set
                0x000000000001375d                leds_get
 .text          0x00000000000137ea      0x343 build/cooja/mtype308.a(gpio-hal-arch.o)
                0x00000000000137ea                gpio_hal_arch_register_pin_callback
                0x0000000000013856                gpio_hal_arch_init
                0x000000000001389b                gpio_hal_arch_no_port_interrupt_enable
                0x00000000000138cb                gpio_hal_arch_no_port_interrupt_disable
                0x00000000000138fb                gpio_hal_arch_no_port_pin_cfg_set
                0x0000000000013920                gpio_hal_arch_no_port_pin_cfg_get
                0x0000000000013946                gpio_hal_arch_no_port_pin_set_input
                0x0000000000013958                gpio_hal_arch_no_port_pin_set_output
                0x000000000001396a                gpio_hal_arch_no_port_set_pin
                0x000000000001398b                gpio_hal_arch_no_port_clear_pin
                0x00000000000139ac                gpio_hal_arch_no_port_read_pin
                0x00000000000139d2                gpio_hal_arch_no_port_write_pin
                0x00000000000139fc                gpio_hal_arch_no_port_set_pins
                0x0000000000013a43                gpio_hal_arch_no_port_clear_pins
                0x0000000000013a8a                gpio_hal_arch_no_port_read_pins
                0x0000000000013acd                gpio_hal_arch_no_port_write_pins
 .text          0x0000000000013b2d       0x89 build/cooja/mtype308.a(buttons.o)
 .text          0x0000000000013bb6      0x2ca build/cooja/mtype308.a(res_temperature)
 .text          0x0000000000013e80      0x27b build/cooja/mtype308.a(coap-blocking-a)
                0x0000000000013e80                coap_blocking_request_callback
                0x0000000000013eaa                coap_blocking_request
 .text          0x00000000000140fb      0xbea build/cooja/mtype308.a(coap-engine.o)
                0x0000000000014190                coap_add_handler
                0x00000000000141ad                coap_remove_handler
                0x00000000000141ca                coap_call_handlers
                0x00000000000142d2                coap_receive
                0x00000000000148cd                coap_engine_init
                0x000000000001492b                coap_activate_resource
                0x00000000000149d6                coap_get_first_resource
                0x00000000000149ef                coap_get_next_resource
 .text          0x0000000000014ce5      0x2d9 build/cooja/mtype308.a(coap-res-well-k)
 .text          0x0000000000014fbe      0x96a build/cooja/mtype308.a(coap-observe.o)
                0x00000000000150d3                coap_remove_observer
                0x0000000000015103                coap_remove_observer_by_client
                0x000000000001516b                coap_remove_observer_by_token
                0x00000000000151fe                coap_remove_observer_by_uri
                0x00000000000152a5                coap_remove_observer_by_mid
                0x0000000000015321                coap_notify_observers
                0x000000000001533a                coap_notify_observers_sub
                0x00000000000157a4                coap_observe_handler
                0x00000000000158bf                coap_has_observers
 .text          0x0000000000015928      0x733 build/cooja/mtype308.a(coap-uip.o)
                0x0000000000015928                coap_endpoint_log
                0x00000000000159ae                coap_endpoint_print
                0x0000000000015a34                coap_endpoint_snprint
                0x0000000000015b67                coap_endpoint_copy
                0x0000000000015ba4                coap_endpoint_cmp
                0x0000000000015cb2                coap_endpoint_parse
                0x0000000000015e9d                coap_endpoint_is_secure
                0x0000000000015eac                coap_endpoint_is_connected
                0x0000000000015ee0                coap_endpoint_connect
                0x0000000000015efc                coap_endpoint_disconnect
                0x0000000000015f02                coap_databuf
                0x0000000000015f0c                coap_transport_init
                0x0000000000015f5c                coap_sendto
 .text          0x000000000001605b      0x324 build/cooja/mtype308.a(coap-timer.o)
                0x0000000000016158                coap_timer_stop
                0x0000000000016183                coap_timer_set
                0x00000000000161c6                coap_timer_reset
                0x0000000000016209                coap_timer_time_to_next_expiration
                0x0000000000016275                coap_timer_run
                0x0000000000016341                coap_timer_init
 .text          0x000000000001637f      0x2c6 build/cooja/mtype308.a(coap-transactio)
                0x00000000000163e5                coap_new_transaction
                0x000000000001644b                coap_send_transaction
                0x00000000000165ac                coap_clear_transaction
                0x00000000000165f4                coap_get_transaction_by_mid
 .text          0x0000000000016645     0x1c53 build/cooja/mtype308.a(coap.o)
                0x0000000000016bb2                coap_init_connection
                0x0000000000016bc6                coap_get_mid
                0x0000000000016be2                coap_init_message
                0x0000000000016c2b                coap_serialize_message
                0x00000000000172ad                coap_parse_message
                0x0000000000017914                coap_get_query_variable
                0x0000000000017956                coap_get_post_variable
                0x000000000001799a                coap_set_status_code
                0x00000000000179bf                coap_set_token
                0x0000000000017a06                coap_get_header_content_format
                0x0000000000017a37                coap_set_header_content_format
                0x0000000000017a5a                coap_get_header_accept
                0x0000000000017a8b                coap_set_header_accept
                0x0000000000017aae                coap_get_header_max_age
                0x0000000000017adf                coap_set_header_max_age
                0x0000000000017aff                coap_get_header_etag
                0x0000000000017b31                coap_set_header_etag
                0x0000000000017b88                coap_get_header_if_match
                0x0000000000017bba                coap_set_header_if_match
                0x0000000000017c11                coap_get_header_if_none_match
                0x0000000000017c2b                coap_set_header_if_none_match
                0x0000000000017c42                coap_get_header_proxy_uri
                0x0000000000017c70                coap_set_header_proxy_uri
                0x0000000000017cad                coap_get_header_uri_host
                0x0000000000017cdb                coap_set_header_uri_host
                0x0000000000017d18                coap_get_header_uri_path
                0x0000000000017d46                coap_set_header_uri_path
                0x0000000000017d93                coap_get_header_uri_query
                0x0000000000017dc7                coap_set_header_uri_query
                0x0000000000017e1d                coap_get_header_location_path
                0x0000000000017e4b                coap_set_header_location_path
                0x0000000000017ee4                coap_get_header_location_query
                0x0000000000017f12                coap_set_header_location_query
                0x0000000000017f5f                coap_get_header_observe
                0x0000000000017f8e                coap_set_header_observe
                0x0000000000017fae                coap_get_header_block2
                0x000000000001801a                coap_set_header_block2
                0x0000000000018091                coap_get_header_block1
                0x0000000000018106                coap_set_header_block1
                0x0000000000018181                coap_get_header_size2
                0x00000000000181b1                coap_set_header_size2
                0x00000000000181d4                coap_get_header_size1
                0x0000000000018204                coap_set_header_size1
                0x0000000000018227                coap_get_payload
                0x0000000000018261                coap_set_payload
 .text          0x0000000000018298      0x332 build/cooja/mtype308.a(contiki-main.o)
                0x0000000000018298                main
 .text          0x00000000000185ca       0x92 build/cooja/mtype308.a(autostart.o)
                0x00000000000185ca                autostart_start
                0x0000000000018614                autostart_exit
 .text          0x000000000001865c      0x355 build/cooja/mtype308.a(ctimer.o)
                0x0000000000018784                ctimer_init
                0x00000000000187b7                ctimer_set
                0x00000000000187dd                ctimer_set_with_process
                0x000000000001885a                ctimer_reset
                0x00000000000188ae                ctimer_restart
                0x0000000000018902                ctimer_stop
                0x0000000000018952                ctimer_expired
 .text          0x00000000000189b1      0x394 build/cooja/mtype308.a(log.o)
                0x00000000000189b1                log_6addr
                0x0000000000018a04                log_6addr_compact_snprint
                0x0000000000018aa2                log_6addr_compact
                0x0000000000018af5                log_lladdr
                0x0000000000018b67                log_lladdr_compact
                0x0000000000018bcf                log_set_level
                0x0000000000018c8a                log_get_level
                0x0000000000018d03                log_level_to_str
 .text          0x0000000000018d45       0x1b build/cooja/mtype308.a(energest.o)
                0x0000000000018d45                energest_init
                0x0000000000018d4b                energest_flush
                0x0000000000018d51                energest_get_total_time
 .text          0x0000000000018d60      0x43f build/cooja/mtype308.a(etimer.o)
                0x0000000000018f84                etimer_request_poll
                0x000000000001900d                etimer_set
                0x0000000000019036                etimer_reset_with_new_interval
                0x0000000000019065                etimer_reset
                0x000000000001908b                etimer_restart
                0x00000000000190b1                etimer_adjust
                0x00000000000190ce                etimer_expired
                0x00000000000190e1                etimer_expiration_time
                0x00000000000190f3                etimer_start_time
                0x00000000000190fd                etimer_pending
                0x000000000001910f                etimer_next_expiration_time
                0x0000000000019129                etimer_stop
 .text          0x000000000001919f       0x25 build/cooja/mtype308.a(node-id.o)
                0x000000000001919f                node_id_init
 .text          0x00000000000191c4       0xeb build/cooja/mtype308.a(rtimer.o)
                0x00000000000191c4                rtimer_init
                0x00000000000191d2                rtimer_set
                0x000000000001924d                rtimer_run_next
 .text          0x00000000000192af      0x4fb build/cooja/mtype308.a(process.o)
                0x00000000000192af                process_alloc_event
                0x00000000000192c4                process_start
                0x000000000001949e                process_exit
                0x00000000000194bb                process_init
                0x0000000000019650                process_run
                0x0000000000019683                process_nevents
                0x000000000001969e                process_post
                0x0000000000019731                process_post_synch
                0x0000000000019766                process_poll
                0x0000000000019796                process_is_running
 .text          0x00000000000197aa       0xb1 build/cooja/mtype308.a(timer.o)
                0x00000000000197aa                timer_set
                0x00000000000197c8                timer_reset
                0x00000000000197f5                timer_restart
                0x000000000001980a                timer_expired
                0x0000000000019837                timer_remaining
 .text          0x000000000001985b      0x28f build/cooja/mtype308.a(list.o)
                0x000000000001985b                list_init
                0x000000000001986a                list_head
                0x0000000000019874                list_copy
                0x0000000000019884                list_tail
                0x00000000000198ba                list_add
                0x0000000000019906                list_push
                0x0000000000019932                list_chop
                0x000000000001999c                list_pop
                0x00000000000199c4                list_remove
                0x0000000000019a2c                list_length
                0x0000000000019a5a                list_insert
                0x0000000000019a9f                list_item_next
                0x0000000000019ab6                list_contains
 .text          0x0000000000019aea      0x1b5 build/cooja/mtype308.a(memb.o)
                0x0000000000019aea                memb_init
                0x0000000000019b3f                memb_alloc
                0x0000000000019ba2                memb_free
                0x0000000000019c19                memb_inmemb
                0x0000000000019c58                memb_numfree
 .text          0x0000000000019c9f      0x41c build/cooja/mtype308.a(button-hal.o)
                0x0000000000019e18                button_hal_get_by_id
                0x0000000000019e56                button_hal_get_by_index
                0x0000000000019e82                button_hal_get_state
                0x0000000000019ed4                button_hal_init
 .text          0x000000000001a0bb      0x1f3 build/cooja/mtype308.a(serial-line.o)
                0x000000000001a0bb                serial_line_input_byte
                0x000000000001a279                serial_line_init
 .text          0x000000000001a2ae      0x168 build/cooja/mtype308.a(gpio-hal.o)
                0x000000000001a2ae                gpio_hal_register_handler
                0x000000000001a2cb                gpio_hal_event_handler
                0x000000000001a327                gpio_hal_init
                0x000000000001a346                gpio_hal_arch_port_toggle_pin
                0x000000000001a382                gpio_hal_arch_port_toggle_pins
                0x000000000001a3b0                gpio_hal_arch_no_port_toggle_pin
                0x000000000001a3ee                gpio_hal_arch_no_port_toggle_pins
 .text          0x000000000001a416      0x2e7 build/cooja/mtype308.a(queuebuf.o)
                0x000000000001a420                queuebuf_init
                0x000000000001a449                queuebuf_numfree
                0x000000000001a461                queuebuf_new_from_packetbuf
                0x000000000001a500                queuebuf_update_attr_from_packetbuf
                0x000000000001a535                queuebuf_update_from_packetbuf
                0x000000000001a585                queuebuf_free
                0x000000000001a5ce                queuebuf_to_packetbuf
                0x000000000001a63a                queuebuf_dataptr
                0x000000000001a674                queuebuf_datalen
                0x000000000001a697                queuebuf_addr
                0x000000000001a6cc                queuebuf_attr
                0x000000000001a6f7                queuebuf_debug_print
 .text          0x000000000001a6fd      0x407 build/cooja/mtype308.a(packetbuf.o)
                0x000000000001a6fd                packetbuf_clear
                0x000000000001a728                packetbuf_copyfrom
                0x000000000001a777                packetbuf_copyto
                0x000000000001a80a                packetbuf_hdralloc
                0x000000000001a886                packetbuf_hdrreduce
                0x000000000001a8cc                packetbuf_set_datalen
                0x000000000001a8e6                packetbuf_dataptr
                0x000000000001a903                packetbuf_hdrptr
                0x000000000001a90d                packetbuf_datalen
                0x000000000001a919                packetbuf_hdrlen
                0x000000000001a930                packetbuf_totlen
                0x000000000001a946                packetbuf_remaininglen
                0x000000000001a959                packetbuf_attr_clear
                0x000000000001a9a5                packetbuf_attr_copyto
                0x000000000001a9fd                packetbuf_attr_copyfrom
                0x000000000001aa55                packetbuf_set_attr
                0x000000000001aa7f                packetbuf_attr
                0x000000000001aa99                packetbuf_set_addr
                0x000000000001aaca                packetbuf_addr
                0x000000000001aae7                packetbuf_holds_broadcast
 .text          0x000000000001ab04       0xef build/cooja/mtype308.a(netstack.o)
                0x000000000001ab04                netstack_process_ip_callback
                0x000000000001ab95                netstack_ip_packet_processor_add
                0x000000000001abb8                uip_ds6_ip_packet_processor_rm
                0x000000000001abd5                netstack_init
 .text          0x000000000001abf3       0x4f build/cooja/mtype308.a(linkaddr.o)
                0x000000000001abf3                linkaddr_copy
                0x000000000001ac09                linkaddr_cmp
                0x000000000001ac2c                linkaddr_set_node_addr
 .text          0x000000000001ac42      0x1f6 build/cooja/mtype308.a(csma.o)
 .text          0x000000000001ae38      0x95d build/cooja/mtype308.a(csma-output.o)
                0x000000000001b4cf                csma_output_packet
                0x000000000001b75c                csma_output_init
 .text          0x000000000001b795      0xc11 build/cooja/mtype308.a(uip-ds6.o)
                0x000000000001b795                uip_ds6_default_prefix
                0x000000000001b79f                uip_ds6_set_default_prefix
                0x000000000001b7ca                uip_ds6_init
                0x000000000001ba2c                uip_ds6_periodic
                0x000000000001bab3                uip_ds6_list_loop
                0x000000000001bb73                uip_ds6_prefix_add
                0x000000000001bc1f                uip_ds6_prefix_rm
                0x000000000001bc32                uip_ds6_prefix_lookup
                0x000000000001bc71                uip_ds6_is_addr_onlink
                0x000000000001bce4                uip_ds6_addr_add
                0x000000000001be04                uip_ds6_addr_rm
                0x000000000001bead                uip_ds6_addr_lookup
                0x000000000001bee6                uip_ds6_get_link_local
                0x000000000001bf67                uip_ds6_get_global
                0x000000000001bfe8                uip_ds6_maddr_add
                0x000000000001c048                uip_ds6_maddr_rm
                0x000000000001c05b                uip_ds6_maddr_lookup
                0x000000000001c094                uip_ds6_aaddr_add
                0x000000000001c0f4                uip_ds6_aaddr_rm
                0x000000000001c107                uip_ds6_aaddr_lookup
                0x000000000001c140                uip_ds6_select_src
                0x000000000001c289                uip_ds6_set_addr_iid
                0x000000000001c2b4                uip_ds6_set_lladdr_from_iid
                0x000000000001c2dd                get_match_length
                0x000000000001c36e                uip_ds6_compute_reachable_time
 .text          0x000000000001c3a6      0x128 build/cooja/mtype308.a(uip-udp-packet.)
                0x000000000001c3a6                uip_udp_packet_send
                0x000000000001c401                uip_udp_packet_sendto
 .text          0x000000000001c4ce      0x35b build/cooja/mtype308.a(uip-ds6-route.o)
                0x000000000001c51f                uip_ds6_route_init
                0x000000000001c549                uip_ds6_route_nexthop
                0x000000000001c553                uip_ds6_route_head
                0x000000000001c55d                uip_ds6_route_next
                0x000000000001c567                uip_ds6_route_is_nexthop
                0x000000000001c571                uip_ds6_route_num_routes
                0x000000000001c57b                uip_ds6_route_lookup
                0x000000000001c585                uip_ds6_route_add
                0x000000000001c598                uip_ds6_route_rm
                0x000000000001c59e                uip_ds6_route_rm_by_nexthop
                0x000000000001c5a4                uip_ds6_defrt_head
                0x000000000001c5bd                uip_ds6_defrt_add
                0x000000000001c66b                uip_ds6_defrt_rm
                0x000000000001c6d1                uip_ds6_defrt_lookup
                0x000000000001c738                uip_ds6_defrt_choose
                0x000000000001c7ae                uip_ds6_defrt_periodic
 .text          0x000000000001c829      0x6f7 build/cooja/mtype308.a(tcpip.o)
                0x000000000001c843                tcpip_output
                0x000000000001c8c2                udp_attach
                0x000000000001c8da                udp_new
                0x000000000001c924                udp_broadcast_new
                0x000000000001ca96                tcpip_input
                0x000000000001cc26                tcpip_ipv6_output
                0x000000000001ce1a                tcpip_poll_udp
                0x000000000001ce38                tcpip_uipcall
 .text          0x000000000001cf20     0x1205 build/cooja/mtype308.a(uip6.o)
                0x000000000001cfcf                uip_chksum
                0x000000000001d0a6                uip_icmp6chksum
                0x000000000001d0bb                uip_udpchksum
                0x000000000001d0d0                uip_init
                0x000000000001d119                uip_remove_ext_hdr
                0x000000000001d1f3                uip_udp_new
                0x000000000001d507                uip_process
                0x000000000001dfff                uip_htons
                0x000000000001e021                uip_htonl
                0x000000000001e05f                uip_send
 .text          0x000000000001e125      0x369 build/cooja/mtype308.a(uip-ds6-nbr.o)
                0x000000000001e125                uip_ds6_neighbors_init
                0x000000000001e149                uip_ds6_nbr_add
                0x000000000001e1cf                uip_ds6_nbr_rm
                0x000000000001e21a                uip_ds6_nbr_update_ll
                0x000000000001e308                uip_ds6_nbr_get_ipaddr
                0x000000000001e31d                uip_ds6_nbr_get_ll
                0x000000000001e339                uip_ds6_nbr_num
                0x000000000001e382                uip_ds6_nbr_head
                0x000000000001e39b                uip_ds6_nbr_next
                0x000000000001e3b7                uip_ds6_nbr_lookup
                0x000000000001e40f                uip_ds6_nbr_ll_lookup
                0x000000000001e42b                uip_ds6_nbr_ipaddr_from_lladdr
                0x000000000001e454                uip_ds6_nbr_lladdr_from_ipaddr
                0x000000000001e488                uip_ds6_link_callback
 .text          0x000000000001e48e      0x6a7 build/cooja/mtype308.a(uip-nd6.o)
                0x000000000001eb1c                uip_nd6_init
 .text          0x000000000001eb35      0x3b0 build/cooja/mtype308.a(simple-udp.o)
                0x000000000001eb62                simple_udp_send
                0x000000000001ebc5                simple_udp_sendto
                0x000000000001ec20                simple_udp_sendto_port
                0x000000000001ec79                simple_udp_register
 .text          0x000000000001eee5     0x2c17 build/cooja/mtype308.a(sicslowpan.o)
                0x000000000001f4ec                netstack_sniffer_add
                0x000000000001f4fa                netstack_sniffer_remove
                0x0000000000021ad0                sicslowpan_init
                0x0000000000021af2                sicslowpan_get_last_rssi
 .text          0x0000000000021afc      0x4d1 build/cooja/mtype308.a(uiplib.o)
                0x0000000000021afc                uiplib_ip6addrconv
                0x0000000000021cb4                uiplib_ip4addrconv
                0x0000000000021d77                uiplib_ipaddr_print
                0x0000000000021dca                uiplib_ipaddr_snprint
 .text          0x0000000000021fcd      0x4c9 build/cooja/mtype308.a(rpl.o)
                0x0000000000021fcd                rpl_lollipop_greater_than
                0x0000000000022027                rpl_get_global_address
                0x000000000002211f                rpl_link_callback
                0x0000000000022163                rpl_has_joined
                0x0000000000022188                rpl_is_reachable
                0x0000000000022209                rpl_reset_prefix
                0x0000000000022273                rpl_set_prefix_from_addr
                0x0000000000022358                rpl_set_prefix
                0x0000000000022472                rpl_set_leaf_only
                0x000000000002248a                rpl_get_leaf_only
 .text          0x0000000000022496     0x138c build/cooja/mtype308.a(rpl-icmp6.o)
                0x00000000000225bb                rpl_icmp6_update_nbr_table
                0x0000000000022644                rpl_icmp6_dis_output
                0x0000000000022c8a                rpl_icmp6_dio_output
                0x0000000000023488                rpl_icmp6_dao_output
                0x0000000000023769                rpl_icmp6_dao_ack_output
                0x00000000000237d9                rpl_icmp6_init
 .text          0x0000000000023822      0x264 build/cooja/mtype308.a(rpl-dag-root.o)
                0x0000000000023822                rpl_dag_root_print_links
                0x000000000002394e                rpl_dag_root_set_prefix
                0x000000000002397a                rpl_dag_root_start
                0x0000000000023a57                rpl_dag_root_is_root
 .text          0x0000000000023a86       0x30 build/cooja/mtype308.a(watchdog.o)
                0x0000000000023a86                watchdog_init
                0x0000000000023a8c                watchdog_start
                0x0000000000023a92                watchdog_periodic
                0x0000000000023aaa                watchdog_stop
                0x0000000000023ab0                watchdog_reboot
 .text          0x0000000000023ab6       0x4a build/cooja/mtype308.a(int-master.o)
                0x0000000000023ab6                int_master_enable
                0x0000000000023ac6                int_master_read_and_disable
                0x0000000000023ae3                int_master_status_set
                0x0000000000023af1                int_master_is_enabled
 .text          0x0000000000023b00      0x226 build/cooja/mtype308.a(coap-timer-defa)
 .text          0x0000000000023d26       0xc7 build/cooja/mtype308.a(stimer.o)
                0x0000000000023d26                stimer_set
                0x0000000000023d44                stimer_reset
                0x0000000000023d71                stimer_restart
                0x0000000000023d86                stimer_expired
                0x0000000000023db1                stimer_remaining
                0x0000000000023dd5                stimer_elapsed
 .text          0x0000000000023ded      0x156 build/cooja/mtype308.a(ringbuf.o)
                0x0000000000023ded                ringbuf_init
                0x0000000000023e1f                ringbuf_put
                0x0000000000023e9d                ringbuf_get
                0x0000000000023f0a                ringbuf_size
                0x0000000000023f1c                ringbuf_elements
 .text          0x0000000000023f43       0x1f build/cooja/mtype308.a(assert.o)
                0x0000000000023f43                _xassert
 .text          0x0000000000023f62      0x79b build/cooja/mtype308.a(nbr-table.o)
                0x00000000000243db                nbr_table_register
                0x0000000000024448                nbr_table_is_registered
                0x0000000000024483                nbr_table_head
                0x00000000000244de                nbr_table_next
                0x000000000002453f                nbr_table_add_lladdr
                0x0000000000024619                nbr_table_get_from_lladdr
                0x0000000000024665                nbr_table_remove
                0x000000000002469d                nbr_table_lock
                0x00000000000246b7                nbr_table_unlock
                0x00000000000246d1                nbr_table_get_lladdr
 .text          0x00000000000246fd      0x3a5 build/cooja/mtype308.a(link-stats.o)
                0x00000000000246fd                link_stats_from_lladdr
                0x0000000000024719                link_stats_get_lladdr
                0x0000000000024735                link_stats_is_fresh
                0x0000000000024771                guess_etx_from_rssi
                0x00000000000247ed                link_stats_packet_sent
                0x000000000002490d                link_stats_input_callback
                0x0000000000024a1d                link_stats_reset
                0x0000000000024a6d                link_stats_init
 .text          0x0000000000024aa2      0x187 build/cooja/mtype308.a(mac-sequence.o)
                0x0000000000024aa2                mac_sequence_is_duplicate
                0x0000000000024b42                mac_sequence_register_seqno
 .text          0x0000000000024c29       0x23 build/cooja/mtype308.a(mac.o)
                0x0000000000024c29                mac_call_sent_callback
 .text          0x0000000000024c4c      0x432 build/cooja/mtype308.a(framer-802154.o)
                0x0000000000024ddb                framer_802154_setup_params
 .text          0x000000000002507e      0xb6f build/cooja/mtype308.a(frame802154.o)
                0x00000000000250af                frame802154_get_pan_id
                0x00000000000250bb                frame802154_set_pan_id
                0x00000000000250d5                frame802154_has_panid
                0x0000000000025284                frame802154_check_dest_panid
                0x000000000002530c                frame802154_is_broadcast_addr
                0x0000000000025359                frame802154_extract_linkaddr
                0x00000000000255be                frame802154_hdrlen
                0x0000000000025631                frame802154_create_fcf
                0x00000000000256e9                frame802154_create
                0x000000000002585e                frame802154_parse_fcf
                0x0000000000025940                frame802154_parse
 .text          0x0000000000025bed       0x2d build/cooja/mtype308.a(csma-security.o)
                0x0000000000025bed                csma_security_create_frame
                0x0000000000025c0b                csma_security_parse_frame
 .text          0x0000000000025c1a      0x4e4 build/cooja/mtype308.a(uipbuf.o)
                0x0000000000025c1a                uipbuf_clear
                0x0000000000025c41                uipbuf_add_ext_hdr
                0x0000000000025cc1                uipbuf_set_len
                0x0000000000025cee                uipbuf_set_len_field
                0x0000000000025d1a                uipbuf_get_len_field
                0x0000000000025d3a                uipbuf_get_next_header
                0x0000000000025e6c                uipbuf_get_last_header
                0x0000000000025ee5                uipbuf_search_header
                0x0000000000025f9b                uipbuf_get_attr
                0x0000000000025fc2                uipbuf_set_attr
                0x0000000000025ff9                uipbuf_set_default_attr
                0x0000000000026030                uipbuf_clear_attr
                0x0000000000026054                uipbuf_set_attr_flag
                0x0000000000026075                uipbuf_clr_attr_flag
                0x000000000002609c                uipbuf_is_attr_flag
                0x00000000000260c0                uipbuf_init
 .text          0x00000000000260fe      0x73f build/cooja/mtype308.a(uip-icmp6.o)
                0x0000000000026173                uip_icmp6_input
                0x00000000000261ca                uip_icmp6_register_input_handler
                0x000000000002631d                uip_icmp6_error_output
                0x00000000000265ce                uip_icmp6_send
                0x00000000000267c5                uip_icmp6_echo_reply_callback_add
                0x00000000000267f7                uip_icmp6_echo_reply_callback_rm
                0x0000000000026814                uip_icmp6_init
 .text          0x000000000002683d      0x69b build/cooja/mtype308.a(uip-sr.o)
                0x000000000002683d                uip_sr_num_nodes
                0x00000000000268cb                uip_sr_get_node
                0x0000000000026922                uip_sr_is_addr_reachable
                0x00000000000269d0                uip_sr_expire_parent
                0x0000000000026a19                uip_sr_update_node
                0x0000000000026b49                uip_sr_init
                0x0000000000026b7d                uip_sr_node_head
                0x0000000000026b96                uip_sr_node_next
                0x0000000000026bac                uip_sr_periodic
                0x0000000000026cb2                uip_sr_free_all
                0x0000000000026d22                uip_sr_link_snprint
 .text          0x0000000000026ed8      0x146 build/cooja/mtype308.a(uip-packetqueue)
                0x0000000000026f06                uip_packetqueue_new
                0x0000000000026f15                uip_packetqueue_alloc
                0x0000000000026f70                uip_packetqueue_free
                0x0000000000026fb7                uip_packetqueue_buf
                0x0000000000026fd4                uip_packetqueue_buflen
                0x0000000000026ff5                uip_packetqueue_set_buflen
 .text          0x000000000002701e      0x1b0 build/cooja/mtype308.a(rpl-nbr-policy.)
                0x000000000002718b                rpl_nbr_policy_find_removable
 .text          0x00000000000271ce      0x915 build/cooja/mtype308.a(rpl-neighbor.o)
                0x000000000002724a                rpl_neighbor_snprint
                0x00000000000274fd                rpl_neighbor_print_list
                0x00000000000275b2                rpl_neighbor_count
                0x0000000000027659                rpl_neighbor_get_from_lladdr
                0x0000000000027675                rpl_neighbor_is_acceptable_parent
                0x00000000000276a9                rpl_neighbor_get_link_metric
                0x00000000000276dd                rpl_neighbor_rank_via_nbr
                0x0000000000027711                rpl_neighbor_get_lladdr
                0x000000000002772d                rpl_neighbor_get_ipaddr
                0x0000000000027754                rpl_neighbor_get_link_stats
                0x000000000002777b                rpl_neighbor_is_fresh
                0x00000000000277a2                rpl_neighbor_is_reachable
                0x00000000000277ed                rpl_neighbor_is_parent
                0x0000000000027817                rpl_neighbor_set_preferred_parent
                0x00000000000278ae                rpl_neighbor_remove_all
                0x000000000002790a                rpl_neighbor_get_from_ipaddr
                0x0000000000027a18                rpl_neighbor_select_best
                0x0000000000027ac4                rpl_neighbor_init
 .text          0x0000000000027ae3      0xe69 build/cooja/mtype308.a(rpl-dag.o)
                0x0000000000027ae3                rpl_dag_state_to_str
                0x0000000000027b22                rpl_dag_get_root_ipaddr
                0x0000000000027b6a                rpl_dag_leave
                0x0000000000027bf3                rpl_dag_poison_and_leave
                0x0000000000027c0b                rpl_dag_periodic
                0x0000000000027c93                rpl_is_addr_in_our_dag
                0x0000000000027cd7                rpl_get_default_instance
                0x0000000000027cf3                rpl_get_any_dag
                0x0000000000027d4c                rpl_refresh_routes
                0x0000000000027d8c                rpl_global_repair
                0x0000000000027e25                rpl_local_repair
                0x0000000000027e6f                rpl_dag_ready_to_advertise
                0x0000000000027eb2                rpl_dag_update_state
                0x00000000000285df                rpl_process_dio
                0x000000000002865d                rpl_process_dis
                0x00000000000286a2                rpl_process_dao
                0x0000000000028731                rpl_process_dao_ack
                0x00000000000287c8                rpl_process_hbh
                0x0000000000028818                rpl_dag_init_root
                0x000000000002892c                rpl_dag_init
 .text          0x000000000002894c      0x9e7 build/cooja/mtype308.a(rpl-timers.o)
                0x000000000002894c                rpl_timers_schedule_periodic_dis
                0x0000000000028a9a                rpl_timers_dio_reset
                0x0000000000028ba8                rpl_timers_schedule_unicast_dio
                0x0000000000028cfc                rpl_timers_schedule_dao
                0x0000000000028dbb                rpl_timers_schedule_dao_ack
                0x0000000000028e41                rpl_timers_notify_dao_ack
                0x0000000000028e9f                get_probing_delay
                0x0000000000028ed3                get_probing_target
                0x00000000000290bd                rpl_schedule_probing
                0x00000000000290eb                rpl_schedule_probing_now
                0x0000000000029155                rpl_timers_unschedule_leaving
                0x000000000002918d                rpl_timers_schedule_leaving
                0x00000000000291ce                rpl_timers_init
                0x000000000002925e                rpl_timers_stop_dag_timers
                0x00000000000292d7                rpl_timers_unschedule_state_update
                0x00000000000292fb                rpl_timers_schedule_state_update
 .text          0x0000000000029333      0xb8e build/cooja/mtype308.a(rpl-ext-header.)
                0x0000000000029333                rpl_ext_header_srh_get_next_hop
                0x000000000002941a                rpl_ext_header_srh_update
                0x0000000000029986                rpl_ext_header_hbh_update
                0x0000000000029c86                rpl_ext_header_update
                0x0000000000029d0f                rpl_ext_header_remove
 .text          0x0000000000029ec1      0x31b build/cooja/mtype308.a(rpl-mrhof.o)
 *fill*         0x000000000002a1dc        0x4 
 .text          0x000000000002a1e0      0x122 /usr/lib/gcc/i686-linux-gnu/5/libgcc.a(_udivdi3.o)
                0x000000000002a1e0                __udivdi3
 .text          0x000000000002a302        0x0 /usr/lib/gcc/i686-linux-gnu/5/crtendS.o
 .text          0x000000000002a302        0x0 /usr/lib/gcc/i686-linux-gnu/5/../../../i386-linux-gnu/crtn.o
 *(.gnu.warning)

.fini           0x000000000002a304       0x14
 *(SORT(.fini))
 .fini          0x000000000002a304        0xf /usr/lib/gcc/i686-linux-gnu/5/../../../i386-linux-gnu/crti.o
                0x000000000002a304                _fini
 .fini          0x000000000002a313        0x5 /usr/lib/gcc/i686-linux-gnu/5/../../../i386-linux-gnu/crtn.o
                [!provide]                        PROVIDE (__etext, .)
                [!provide]                        PROVIDE (_etext, .)
                [!provide]                        PROVIDE (etext, .)

.rodata         0x000000000002a320      0xb4b
 *(.rodata .rodata.* .gnu.linkonce.r.*)
 .rodata        0x000000000002a320      0x154 client.o
                0x000000000002a344                autostart_processes
 .rodata        0x000000000002a474        0x8 build/cooja/mtype308.a(beep.o)
                0x000000000002a474                beep_interface
 .rodata        0x000000000002a47c        0xe build/cooja/mtype308.a(leds-arch.o)
                0x000000000002a47c                leds_interface
                0x000000000002a484                leds_arch_leds
 *fill*         0x000000000002a48a        0x2 
 .rodata        0x000000000002a48c        0x8 build/cooja/mtype308.a(moteid.o)
                0x000000000002a48c                moteid_interface
 .rodata        0x000000000002a494       0x1c build/cooja/mtype308.a(pir-sensor.o)
                0x000000000002a494                pir_interface
                0x000000000002a4a0                pir_sensor
 .rodata        0x000000000002a4b0        0xe build/cooja/mtype308.a(rs232.o)
                0x000000000002a4b0                rs232_interface
 *fill*         0x000000000002a4be        0x2 
 .rodata        0x000000000002a4c0       0x24 build/cooja/mtype308.a(vib-sensor.o)
                0x000000000002a4c0                vib_interface
                0x000000000002a4d4                vib_sensor
 .rodata        0x000000000002a4e4        0x8 build/cooja/mtype308.a(clock.o)
                0x000000000002a4e4                clock_interface
 .rodata        0x000000000002a4ec        0x8 build/cooja/mtype308.a(cooja-log.o)
                0x000000000002a4ec                simlog_interface
 .rodata        0x000000000002a4f4       0x2f build/cooja/mtype308.a(cfs-cooja.o)
                0x000000000002a4f4                cfs_interface
 *fill*         0x000000000002a523       0x1d 
 .rodata        0x000000000002a540       0xb8 build/cooja/mtype308.a(cooja-radio.o)
                0x000000000002a540                radio_interface
                0x000000000002a5c0                cooja_radio_driver
 .rodata        0x000000000002a5f8        0x8 build/cooja/mtype308.a(eeprom.o)
                0x000000000002a5f8                eeprom_interface
 .rodata        0x000000000002a600        0x8 build/cooja/mtype308.a(sensors.o)
 .rodata        0x000000000002a608       0x2c build/cooja/mtype308.a(buttons.o)
                0x000000000002a608                button_interface
                0x000000000002a61c                button_hal_button_count
                0x000000000002a624                button_sensor
 .rodata        0x000000000002a634       0x5d build/cooja/mtype308.a(res_temperature)
 .rodata        0x000000000002a691       0x41 build/cooja/mtype308.a(coap-engine.o)
 .rodata        0x000000000002a6d2       0x19 build/cooja/mtype308.a(coap-res-well-k)
 .rodata        0x000000000002a6eb       0x11 build/cooja/mtype308.a(coap-observe.o)
 .rodata        0x000000000002a6fc       0x35 build/cooja/mtype308.a(coap-uip.o)
 *fill*         0x000000000002a731        0x3 
 .rodata        0x000000000002a734      0x1ac build/cooja/mtype308.a(coap.o)
 .rodata        0x000000000002a8e0       0xf8 build/cooja/mtype308.a(contiki-main.o)
 .rodata        0x000000000002a9d8        0xf build/cooja/mtype308.a(ctimer.o)
 *fill*         0x000000000002a9e7        0x1 
 .rodata        0x000000000002a9e8       0xc4 build/cooja/mtype308.a(log.o)
 .rodata        0x000000000002aaac        0xc build/cooja/mtype308.a(etimer.o)
 .rodata        0x000000000002aab8       0x13 build/cooja/mtype308.a(button-hal.o)
 .rodata        0x000000000002aacb        0xe build/cooja/mtype308.a(serial-line.o)
 *fill*         0x000000000002aad9        0x3 
 .rodata        0x000000000002aadc        0x8 build/cooja/mtype308.a(linkaddr.o)
                0x000000000002aadc                linkaddr_null
 .rodata        0x000000000002aae4       0x24 build/cooja/mtype308.a(csma.o)
                0x000000000002aaec                csma_driver
 .rodata        0x000000000002ab08       0x2a build/cooja/mtype308.a(csma-output.o)
 *fill*         0x000000000002ab32        0x2 
 .rodata        0x000000000002ab34       0x4d build/cooja/mtype308.a(uip-ds6-route.o)
 .rodata        0x000000000002ab81        0xd build/cooja/mtype308.a(tcpip.o)
 .rodata        0x000000000002ab8e       0x13 build/cooja/mtype308.a(simple-udp.o)
 *fill*         0x000000000002aba1        0x3 
 .rodata        0x000000000002aba4       0x30 build/cooja/mtype308.a(sicslowpan.o)
                0x000000000002aba4                unc_llconf
                0x000000000002aba8                unc_ctxconf
                0x000000000002abac                unc_mxconf
                0x000000000002abb0                llprefix
                0x000000000002abc4                sicslowpan_driver
 .rodata        0x000000000002abd4       0x2d build/cooja/mtype308.a(uiplib.o)
 *fill*         0x000000000002ac01       0x1f 
 .rodata        0x000000000002ac20       0x74 build/cooja/mtype308.a(rpl.o)
                0x000000000002ac40                rpl_lite_driver
 .rodata        0x000000000002ac94       0x20 build/cooja/mtype308.a(coap-timer-defa)
                0x000000000002aca8                coap_timer_default_driver
 .rodata        0x000000000002acb4       0x25 build/cooja/mtype308.a(assert.o)
 *fill*         0x000000000002acd9        0x3 
 .rodata        0x000000000002acdc        0xc build/cooja/mtype308.a(framer-802154.o)
                0x000000000002acdc                framer_802154
 .rodata        0x000000000002ace8       0x44 build/cooja/mtype308.a(uip-sr.o)
 .rodata        0x000000000002ad2c       0x58 build/cooja/mtype308.a(rpl-neighbor.o)
 .rodata        0x000000000002ad84       0xdb build/cooja/mtype308.a(rpl-dag.o)
 .rodata        0x000000000002ae5f        0xc build/cooja/mtype308.a(rpl-timers.o)

.rodata1
 *(.rodata1)

.eh_frame_hdr   0x000000000002ae6c     0x1a2c
 *(.eh_frame_hdr)
 .eh_frame_hdr  0x000000000002ae6c     0x1a2c client.o
                0x000000000002ae6c                __GNU_EH_FRAME_HDR
 *(.eh_frame_entry .eh_frame_entry.*)

.eh_frame       0x000000000002c898     0x6a48
 *(.eh_frame)
 .eh_frame      0x000000000002c898       0x3c /usr/lib/gcc/i686-linux-gnu/5/../../../i386-linux-gnu/crti.o
                                         0x40 (size before relaxing)
 .eh_frame      0x000000000002c8d4       0xa0 client.o
                                         0xb8 (size before relaxing)
 .eh_frame      0x000000000002c974      0x178 build/cooja/mtype308.o
                                        0x190 (size before relaxing)
 .eh_frame      0x000000000002caec       0x40 build/cooja/mtype308.a(simEnvChange.o)
                                         0x58 (size before relaxing)
 .eh_frame      0x000000000002cb2c       0x60 build/cooja/mtype308.a(cooja_mt.o)
                                         0x78 (size before relaxing)
 .eh_frame      0x000000000002cb8c       0x80 build/cooja/mtype308.a(cooja_mtarch.o)
                                         0x98 (size before relaxing)
 .eh_frame      0x000000000002cc0c       0xc8 build/cooja/mtype308.a(rtimer-arch.o)
                                         0xe0 (size before relaxing)
 .eh_frame      0x000000000002ccd4      0x160 build/cooja/mtype308.a(beep.o)
                                        0x178 (size before relaxing)
 .eh_frame      0x000000000002ce34       0x80 build/cooja/mtype308.a(leds-arch.o)
                                         0x98 (size before relaxing)
 .eh_frame      0x000000000002ceb4       0x40 build/cooja/mtype308.a(moteid.o)
                                         0x58 (size before relaxing)
 .eh_frame      0x000000000002cef4       0xa0 build/cooja/mtype308.a(pir-sensor.o)
                                         0xb8 (size before relaxing)
 .eh_frame      0x000000000002cf94      0x100 build/cooja/mtype308.a(rs232.o)
                                        0x118 (size before relaxing)
 .eh_frame      0x000000000002d094       0xa0 build/cooja/mtype308.a(vib-sensor.o)
                                         0xb8 (size before relaxing)
 .eh_frame      0x000000000002d134       0xc0 build/cooja/mtype308.a(clock.o)
                                         0xd8 (size before relaxing)
 .eh_frame      0x000000000002d1f4      0x120 build/cooja/mtype308.a(cooja-log.o)
                                        0x138 (size before relaxing)
 .eh_frame      0x000000000002d314      0x160 build/cooja/mtype308.a(cfs-cooja.o)
                                        0x178 (size before relaxing)
 .eh_frame      0x000000000002d474      0x340 build/cooja/mtype308.a(cooja-radio.o)
                                        0x358 (size before relaxing)
 .eh_frame      0x000000000002d7b4       0xa0 build/cooja/mtype308.a(eeprom.o)
                                         0xb8 (size before relaxing)
 .eh_frame      0x000000000002d854       0x40 build/cooja/mtype308.a(random.o)
                                         0x58 (size before relaxing)
 .eh_frame      0x000000000002d894       0xc0 build/cooja/mtype308.a(sensors.o)
                                         0xd8 (size before relaxing)
 .eh_frame      0x000000000002d954      0x120 build/cooja/mtype308.a(leds.o)
                                        0x138 (size before relaxing)
 .eh_frame      0x000000000002da74      0x220 build/cooja/mtype308.a(gpio-hal-arch.o)
                                        0x238 (size before relaxing)
 .eh_frame      0x000000000002dc94       0xa0 build/cooja/mtype308.a(buttons.o)
                                         0xb8 (size before relaxing)
 .eh_frame      0x000000000002dd34       0x8c build/cooja/mtype308.a(res_temperature)
                                         0xa4 (size before relaxing)
 .eh_frame      0x000000000002ddc0       0x44 build/cooja/mtype308.a(coap-blocking-a)
                                         0x5c (size before relaxing)
 .eh_frame      0x000000000002de04      0x220 build/cooja/mtype308.a(coap-engine.o)
                                        0x238 (size before relaxing)
 .eh_frame      0x000000000002e024       0x24 build/cooja/mtype308.a(coap-res-well-k)
                                         0x3c (size before relaxing)
 .eh_frame      0x000000000002e048      0x188 build/cooja/mtype308.a(coap-observe.o)
                                        0x1a0 (size before relaxing)
 .eh_frame      0x000000000002e1d0      0x250 build/cooja/mtype308.a(coap-uip.o)
                                        0x268 (size before relaxing)
 .eh_frame      0x000000000002e420      0x114 build/cooja/mtype308.a(coap-timer.o)
                                        0x12c (size before relaxing)
 .eh_frame      0x000000000002e534      0x100 build/cooja/mtype308.a(coap-transactio)
                                        0x118 (size before relaxing)
 .eh_frame      0x000000000002e634      0x6ec build/cooja/mtype308.a(coap.o)
                                        0x704 (size before relaxing)
 .eh_frame      0x000000000002ed20       0x30 build/cooja/mtype308.a(contiki-main.o)
                                         0x48 (size before relaxing)
 .eh_frame      0x000000000002ed50       0x40 build/cooja/mtype308.a(autostart.o)
                                         0x58 (size before relaxing)
 .eh_frame      0x000000000002ed90      0x100 build/cooja/mtype308.a(ctimer.o)
                                        0x118 (size before relaxing)
 .eh_frame      0x000000000002ee90      0x100 build/cooja/mtype308.a(log.o)
                                        0x118 (size before relaxing)
 .eh_frame      0x000000000002ef90       0x60 build/cooja/mtype308.a(energest.o)
                                         0x78 (size before relaxing)
 .eh_frame      0x000000000002eff0      0x1e0 build/cooja/mtype308.a(etimer.o)
                                        0x1f8 (size before relaxing)
 .eh_frame      0x000000000002f1d0       0x20 build/cooja/mtype308.a(node-id.o)
                                         0x38 (size before relaxing)
 .eh_frame      0x000000000002f1f0       0x60 build/cooja/mtype308.a(rtimer.o)
                                         0x78 (size before relaxing)
 .eh_frame      0x000000000002f250      0x1c4 build/cooja/mtype308.a(process.o)
                                        0x1dc (size before relaxing)
 .eh_frame      0x000000000002f414       0xa4 build/cooja/mtype308.a(timer.o)
                                         0xbc (size before relaxing)
 .eh_frame      0x000000000002f4b8      0x1a0 build/cooja/mtype308.a(list.o)
                                        0x1b8 (size before relaxing)
 .eh_frame      0x000000000002f658       0xa0 build/cooja/mtype308.a(memb.o)
                                         0xb8 (size before relaxing)
 .eh_frame      0x000000000002f6f8      0x144 build/cooja/mtype308.a(button-hal.o)
                                        0x15c (size before relaxing)
 .eh_frame      0x000000000002f83c       0x60 build/cooja/mtype308.a(serial-line.o)
                                         0x78 (size before relaxing)
 .eh_frame      0x000000000002f89c       0xe0 build/cooja/mtype308.a(gpio-hal.o)
                                         0xf8 (size before relaxing)
 .eh_frame      0x000000000002f97c      0x1a0 build/cooja/mtype308.a(queuebuf.o)
                                        0x1b8 (size before relaxing)
 .eh_frame      0x000000000002fb1c      0x28c build/cooja/mtype308.a(packetbuf.o)
                                        0x2a4 (size before relaxing)
 .eh_frame      0x000000000002fda8       0x80 build/cooja/mtype308.a(netstack.o)
                                         0x98 (size before relaxing)
 .eh_frame      0x000000000002fe28       0x60 build/cooja/mtype308.a(linkaddr.o)
                                         0x78 (size before relaxing)
 .eh_frame      0x000000000002fe88       0xe0 build/cooja/mtype308.a(csma.o)
                                         0xf8 (size before relaxing)
 .eh_frame      0x000000000002ff68      0x1d0 build/cooja/mtype308.a(csma-output.o)
                                        0x1e8 (size before relaxing)
 .eh_frame      0x0000000000030138      0x328 build/cooja/mtype308.a(uip-ds6.o)
                                        0x340 (size before relaxing)
 .eh_frame      0x0000000000030460       0x40 build/cooja/mtype308.a(uip-udp-packet.)
                                         0x58 (size before relaxing)
 .eh_frame      0x00000000000304a0      0x220 build/cooja/mtype308.a(uip-ds6-route.o)
                                        0x238 (size before relaxing)
 .eh_frame      0x00000000000306c0      0x244 build/cooja/mtype308.a(tcpip.o)
                                        0x25c (size before relaxing)
 .eh_frame      0x0000000000030904      0x1e8 build/cooja/mtype308.a(uip6.o)
                                        0x200 (size before relaxing)
 .eh_frame      0x0000000000030aec      0x1c0 build/cooja/mtype308.a(uip-ds6-nbr.o)
                                        0x1d8 (size before relaxing)
 .eh_frame      0x0000000000030cac       0x84 build/cooja/mtype308.a(uip-nd6.o)
                                         0x9c (size before relaxing)
 .eh_frame      0x0000000000030d30       0xd4 build/cooja/mtype308.a(simple-udp.o)
                                         0xec (size before relaxing)
 .eh_frame      0x0000000000030e04      0x2f8 build/cooja/mtype308.a(sicslowpan.o)
                                        0x310 (size before relaxing)
 .eh_frame      0x00000000000310fc       0x88 build/cooja/mtype308.a(uiplib.o)
                                         0xa0 (size before relaxing)
 .eh_frame      0x0000000000031184      0x1e0 build/cooja/mtype308.a(rpl.o)
                                        0x1f8 (size before relaxing)
 .eh_frame      0x0000000000031364      0x1c4 build/cooja/mtype308.a(rpl-icmp6.o)
                                        0x1dc (size before relaxing)
 .eh_frame      0x0000000000031528       0xa0 build/cooja/mtype308.a(rpl-dag-root.o)
                                         0xb8 (size before relaxing)
 .eh_frame      0x00000000000315c8       0xa0 build/cooja/mtype308.a(watchdog.o)
                                         0xb8 (size before relaxing)
 .eh_frame      0x0000000000031668       0x80 build/cooja/mtype308.a(int-master.o)
                                         0x98 (size before relaxing)
 .eh_frame      0x00000000000316e8       0xa4 build/cooja/mtype308.a(coap-timer-defa)
                                         0xbc (size before relaxing)
 .eh_frame      0x000000000003178c       0xc4 build/cooja/mtype308.a(stimer.o)
                                         0xdc (size before relaxing)
 .eh_frame      0x0000000000031850       0xa0 build/cooja/mtype308.a(ringbuf.o)
                                         0xb8 (size before relaxing)
 .eh_frame      0x00000000000318f0       0x20 build/cooja/mtype308.a(assert.o)
                                         0x38 (size before relaxing)
 .eh_frame      0x0000000000031910      0x2ac build/cooja/mtype308.a(nbr-table.o)
                                        0x2c4 (size before relaxing)
 .eh_frame      0x0000000000031bbc      0x120 build/cooja/mtype308.a(link-stats.o)
                                        0x138 (size before relaxing)
 .eh_frame      0x0000000000031cdc       0x48 build/cooja/mtype308.a(mac-sequence.o)
                                         0x60 (size before relaxing)
 .eh_frame      0x0000000000031d24       0x20 build/cooja/mtype308.a(mac.o)
                                         0x38 (size before relaxing)
 .eh_frame      0x0000000000031d44       0xa4 build/cooja/mtype308.a(framer-802154.o)
                                         0xbc (size before relaxing)
 .eh_frame      0x0000000000031de8      0x1a4 build/cooja/mtype308.a(frame802154.o)
                                        0x1bc (size before relaxing)
 .eh_frame      0x0000000000031f8c       0x40 build/cooja/mtype308.a(csma-security.o)
                                         0x58 (size before relaxing)
 .eh_frame      0x0000000000031fcc      0x200 build/cooja/mtype308.a(uipbuf.o)
                                        0x218 (size before relaxing)
 .eh_frame      0x00000000000321cc      0x150 build/cooja/mtype308.a(uip-icmp6.o)
                                        0x168 (size before relaxing)
 .eh_frame      0x000000000003231c      0x184 build/cooja/mtype308.a(uip-sr.o)
                                        0x19c (size before relaxing)
 .eh_frame      0x00000000000324a0       0xe0 build/cooja/mtype308.a(uip-packetqueue)
                                         0xf8 (size before relaxing)
 .eh_frame      0x0000000000032580       0x80 build/cooja/mtype308.a(rpl-nbr-policy.)
                                         0x98 (size before relaxing)
 .eh_frame      0x0000000000032600      0x2d4 build/cooja/mtype308.a(rpl-neighbor.o)
                                        0x2ec (size before relaxing)
 .eh_frame      0x00000000000328d4      0x370 build/cooja/mtype308.a(rpl-dag.o)
                                        0x388 (size before relaxing)
 .eh_frame      0x0000000000032c44      0x3a8 build/cooja/mtype308.a(rpl-timers.o)
                                        0x3c0 (size before relaxing)
 .eh_frame      0x0000000000032fec      0x124 build/cooja/mtype308.a(rpl-ext-header.)
                                        0x13c (size before relaxing)
 .eh_frame      0x0000000000033110      0x148 build/cooja/mtype308.a(rpl-mrhof.o)
                                        0x160 (size before relaxing)
 .eh_frame      0x0000000000033258       0x84 /usr/lib/gcc/i686-linux-gnu/5/libgcc.a(_udivdi3.o)
                                         0x9c (size before relaxing)
 .eh_frame      0x00000000000332dc        0x4 /usr/lib/gcc/i686-linux-gnu/5/crtendS.o
 *(.eh_frame.*)

.gcc_except_table
 *(.gcc_except_table .gcc_except_table.*)

.gnu_extab
 *(.gnu_extab*)

.exception_ranges
 *(.exception_ranges .exception_ranges*)
                0x0000000000034f10                . = DATA_SEGMENT_ALIGN (0x1000, 0x1000)

.eh_frame
 *(.eh_frame)
 *(.eh_frame.*)

.gnu_extab
 *(.gnu_extab)

.gcc_except_table
 *(.gcc_except_table .gcc_except_table.*)

.exception_ranges
 *(.exception_ranges .exception_ranges*)

.tdata
 *(.tdata .tdata.* .gnu.linkonce.td.*)

.tbss
 *(.tbss .tbss.* .gnu.linkonce.tb.*)
 *(.tcommon)

.preinit_array
 *(.preinit_array)

.init_array     0x0000000000034f10        0x4
 *(SORT(.init_array.*) SORT(.ctors.*))
 *(.init_array EXCLUDE_FILE(*crtend?.o *crtend.o *crtbegin?.o *crtbegin.o) .ctors)
 .init_array    0x0000000000034f10        0x4 /usr/lib/gcc/i686-linux-gnu/5/crtbeginS.o

.fini_array     0x0000000000034f14        0x4
 *(SORT(.fini_array.*) SORT(.dtors.*))
 *(.fini_array EXCLUDE_FILE(*crtend?.o *crtend.o *crtbegin?.o *crtbegin.o) .dtors)
 .fini_array    0x0000000000034f14        0x4 /usr/lib/gcc/i686-linux-gnu/5/crtbeginS.o

.ctors
 *crtbegin.o(.ctors)
 *crtbegin?.o(.ctors)
 *(EXCLUDE_FILE(*crtend?.o *crtend.o) .ctors)
 *(SORT(.ctors.*))
 *(.ctors)

.dtors
 *crtbegin.o(.dtors)
 *crtbegin?.o(.dtors)
 *(EXCLUDE_FILE(*crtend?.o *crtend.o) .dtors)
 *(SORT(.dtors.*))
 *(.dtors)

.jcr            0x0000000000034f18        0x4
 *(.jcr)
 .jcr           0x0000000000034f18        0x0 /usr/lib/gcc/i686-linux-gnu/5/crtbeginS.o
 .jcr           0x0000000000034f18        0x4 /usr/lib/gcc/i686-linux-gnu/5/crtendS.o

.data.rel.ro
 *(.data.rel.ro.local* .gnu.linkonce.d.rel.ro.local.*)
 *(.data.rel.ro .data.rel.ro.* .gnu.linkonce.d.rel.ro.*)

.dynamic        0x0000000000034f1c       0xd0
 *(.dynamic)
 .dynamic       0x0000000000034f1c       0xd0 /usr/lib/gcc/i686-linux-gnu/5/../../../i386-linux-gnu/crti.o
                0x0000000000034f1c                _DYNAMIC

.got            0x0000000000034fec       0x14
 *(.got)
 .got           0x0000000000034fec       0x14 /usr/lib/gcc/i686-linux-gnu/5/../../../i386-linux-gnu/crti.o
 *(.igot)
                0x0000000000035ff4                . = DATA_SEGMENT_RELRO_END (., (SIZEOF (.got.plt) >= 0xc)?0xc:0x0)

.got.plt        0x0000000000035000        0xc
 *(.got.plt)
 .got.plt       0x0000000000035000        0xc /usr/lib/gcc/i686-linux-gnu/5/../../../i386-linux-gnu/crti.o
                0x0000000000035000                _GLOBAL_OFFSET_TABLE_
 *(.igot.plt)

.data           0x0000000000035020      0x484
 *(.data .data.* .gnu.linkonce.d.*)
 .data          0x0000000000035020        0x0 /usr/lib/gcc/i686-linux-gnu/5/../../../i386-linux-gnu/crti.o
 .data          0x0000000000035020        0x0 /usr/lib/gcc/i686-linux-gnu/5/crtbeginS.o
 .data.rel.local
                0x0000000000035020        0x4 /usr/lib/gcc/i686-linux-gnu/5/crtbeginS.o
                0x0000000000035020                __dso_handle
 .data          0x0000000000035024       0x30 client.o
                0x0000000000035024                udp_client
                0x0000000000035034                coap_client
                0x0000000000035044                coap_server
 *fill*         0x0000000000035054        0xc 
 .data          0x0000000000035060       0x44 build/cooja/mtype308.o
                0x0000000000035060                simInterfaces
                0x0000000000035094                sensors
 .data          0x00000000000350a4        0x0 build/cooja/mtype308.a(simEnvChange.o)
 .data          0x00000000000350a4        0x0 build/cooja/mtype308.a(cooja_mt.o)
 .data          0x00000000000350a4        0x0 build/cooja/mtype308.a(cooja_mtarch.o)
 .data          0x00000000000350a4        0x0 build/cooja/mtype308.a(rtimer-arch.o)
 .data          0x00000000000350a4        0x0 build/cooja/mtype308.a(beep.o)
 .data          0x00000000000350a4        0x0 build/cooja/mtype308.a(leds-arch.o)
 .data          0x00000000000350a4        0x0 build/cooja/mtype308.a(moteid.o)
 .data          0x00000000000350a4        0x0 build/cooja/mtype308.a(pir-sensor.o)
 .data          0x00000000000350a4        0x0 build/cooja/mtype308.a(rs232.o)
 .data          0x00000000000350a4        0x0 build/cooja/mtype308.a(vib-sensor.o)
 .data          0x00000000000350a4        0x0 build/cooja/mtype308.a(clock.o)
 .data          0x00000000000350a4        0x0 build/cooja/mtype308.a(cooja-log.o)
 .data          0x00000000000350a4        0x0 build/cooja/mtype308.a(cfs-cooja.o)
 .data          0x00000000000350a4       0x2c build/cooja/mtype308.a(cooja-radio.o)
                0x00000000000350a4                simRadioHWOn
                0x00000000000350a8                simSignalStrength
                0x00000000000350ac                simLastSignalStrength
                0x00000000000350b0                simPower
                0x00000000000350b4                simRadioChannel
                0x00000000000350b8                simLQI
                0x00000000000350c0                cooja_radio_process
 .data          0x00000000000350d0        0x0 build/cooja/mtype308.a(eeprom.o)
 .data          0x00000000000350d0        0x0 build/cooja/mtype308.a(random.o)
 .data          0x00000000000350d0       0x10 build/cooja/mtype308.a(sensors.o)
                0x00000000000350d0                sensors_process
 .data          0x00000000000350e0        0x0 build/cooja/mtype308.a(leds.o)
 .data          0x00000000000350e0        0x0 build/cooja/mtype308.a(gpio-hal-arch.o)
 .data          0x00000000000350e0       0x78 build/cooja/mtype308.a(buttons.o)
                0x00000000000350e0                simButtonIsActive
                0x0000000000035150                button_hal_buttons
 *fill*         0x0000000000035158        0x8 
 .data          0x0000000000035160       0x44 build/cooja/mtype308.a(res_temperature)
                0x0000000000035180                res_temperature
 .data          0x00000000000351a4        0x0 build/cooja/mtype308.a(coap-blocking-a)
 .data          0x00000000000351a4        0x8 build/cooja/mtype308.a(coap-engine.o)
 *fill*         0x00000000000351ac       0x14 
 .data          0x00000000000351c0       0x24 build/cooja/mtype308.a(coap-res-well-k)
                0x00000000000351c0                res_well_known_core
 .data          0x00000000000351e4       0x10 build/cooja/mtype308.a(coap-observe.o)
 .data          0x00000000000351f4       0x10 build/cooja/mtype308.a(coap-uip.o)
                0x00000000000351f4                coap_engine
 .data          0x0000000000035204        0x4 build/cooja/mtype308.a(coap-timer.o)
 .data          0x0000000000035208       0x10 build/cooja/mtype308.a(coap-transactio)
 .data          0x0000000000035218        0x4 build/cooja/mtype308.a(coap.o)
                0x0000000000035218                coap_error_message
 .data          0x000000000003521c        0x0 build/cooja/mtype308.a(contiki-main.o)
 .data          0x000000000003521c        0x0 build/cooja/mtype308.a(autostart.o)
 .data          0x000000000003521c       0x14 build/cooja/mtype308.a(ctimer.o)
                0x0000000000035220                ctimer_process
 *fill*         0x0000000000035230       0x10 
 .data          0x0000000000035240       0xbc build/cooja/mtype308.a(log.o)
                0x0000000000035240                curr_log_level_main
                0x0000000000035260                all_modules
 .data          0x00000000000352fc        0x0 build/cooja/mtype308.a(energest.o)
 .data          0x00000000000352fc       0x10 build/cooja/mtype308.a(etimer.o)
                0x00000000000352fc                etimer_process
 .data          0x000000000003530c        0x0 build/cooja/mtype308.a(node-id.o)
 .data          0x000000000003530c        0x0 build/cooja/mtype308.a(rtimer.o)
 .data          0x000000000003530c        0x0 build/cooja/mtype308.a(process.o)
 .data          0x000000000003530c        0x0 build/cooja/mtype308.a(timer.o)
 .data          0x000000000003530c        0x0 build/cooja/mtype308.a(list.o)
 .data          0x000000000003530c        0x0 build/cooja/mtype308.a(memb.o)
 .data          0x000000000003530c       0x10 build/cooja/mtype308.a(button-hal.o)
                0x000000000003530c                button_hal_process
 .data          0x000000000003531c       0x10 build/cooja/mtype308.a(serial-line.o)
                0x000000000003531c                serial_line_process
 .data          0x000000000003532c        0x4 build/cooja/mtype308.a(gpio-hal.o)
 .data          0x0000000000035330       0x18 build/cooja/mtype308.a(queuebuf.o)
 .data          0x0000000000035348        0x4 build/cooja/mtype308.a(packetbuf.o)
 .data          0x000000000003534c        0x4 build/cooja/mtype308.a(netstack.o)
 .data          0x0000000000035350        0x0 build/cooja/mtype308.a(linkaddr.o)
 .data          0x0000000000035350        0x0 build/cooja/mtype308.a(csma.o)
 .data          0x0000000000035350       0x28 build/cooja/mtype308.a(csma-output.o)
 .data          0x0000000000035378        0x0 build/cooja/mtype308.a(uip-ds6.o)
 .data          0x0000000000035378        0x0 build/cooja/mtype308.a(uip-udp-packet.)
 .data          0x0000000000035378       0x10 build/cooja/mtype308.a(uip-ds6-route.o)
 .data          0x0000000000035388       0x10 build/cooja/mtype308.a(tcpip.o)
                0x0000000000035388                tcpip_process
 .data          0x0000000000035398        0x0 build/cooja/mtype308.a(uip6.o)
 .data          0x0000000000035398       0x14 build/cooja/mtype308.a(uip-ds6-nbr.o)
 .data          0x00000000000353ac        0xc build/cooja/mtype308.a(uip-nd6.o)
 .data          0x00000000000353b8       0x10 build/cooja/mtype308.a(simple-udp.o)
                0x00000000000353b8                simple_udp_process
 .data          0x00000000000353c8        0x0 build/cooja/mtype308.a(sicslowpan.o)
 .data          0x00000000000353c8        0x0 build/cooja/mtype308.a(uiplib.o)
 .data          0x00000000000353c8        0x0 build/cooja/mtype308.a(rpl.o)
 .data          0x00000000000353c8       0x30 build/cooja/mtype308.a(rpl-icmp6.o)
 .data          0x00000000000353f8        0x0 build/cooja/mtype308.a(rpl-dag-root.o)
 .data          0x00000000000353f8        0x0 build/cooja/mtype308.a(watchdog.o)
 .data          0x00000000000353f8        0x0 build/cooja/mtype308.a(int-master.o)
 .data          0x00000000000353f8       0x10 build/cooja/mtype308.a(coap-timer-defa)
                0x00000000000353f8                coap_timer_process
 .data          0x0000000000035408        0x0 build/cooja/mtype308.a(stimer.o)
 .data          0x0000000000035408        0x0 build/cooja/mtype308.a(ringbuf.o)
 .data          0x0000000000035408        0x0 build/cooja/mtype308.a(assert.o)
 .data          0x0000000000035408       0x10 build/cooja/mtype308.a(nbr-table.o)
 .data          0x0000000000035418       0x14 build/cooja/mtype308.a(link-stats.o)
 .data          0x000000000003542c        0x0 build/cooja/mtype308.a(mac-sequence.o)
 .data          0x000000000003542c        0x0 build/cooja/mtype308.a(mac.o)
 .data          0x000000000003542c        0x0 build/cooja/mtype308.a(framer-802154.o)
 .data          0x000000000003542c        0x2 build/cooja/mtype308.a(frame802154.o)
 .data          0x000000000003542e        0x0 build/cooja/mtype308.a(csma-security.o)
 .data          0x000000000003542e        0x0 build/cooja/mtype308.a(uipbuf.o)
 *fill*         0x000000000003542e        0x2 
 .data          0x0000000000035430       0x20 build/cooja/mtype308.a(uip-icmp6.o)
 .data          0x0000000000035450       0x10 build/cooja/mtype308.a(uip-sr.o)
 .data          0x0000000000035460        0xc build/cooja/mtype308.a(uip-packetqueue)
 .data          0x000000000003546c        0x0 build/cooja/mtype308.a(rpl-nbr-policy.)
 .data          0x000000000003546c       0x14 build/cooja/mtype308.a(rpl-neighbor.o)
                0x000000000003547c                rpl_neighbors
 .data          0x0000000000035480        0x0 build/cooja/mtype308.a(rpl-dag.o)
 .data          0x0000000000035480        0x0 build/cooja/mtype308.a(rpl-timers.o)
 .data          0x0000000000035480        0x0 build/cooja/mtype308.a(rpl-ext-header.)
 .data          0x0000000000035480       0x24 build/cooja/mtype308.a(rpl-mrhof.o)
                0x0000000000035480                rpl_mrhof
 .data          0x00000000000354a4        0x0 /usr/lib/gcc/i686-linux-gnu/5/libgcc.a(_udivdi3.o)
 .data          0x00000000000354a4        0x0 /usr/lib/gcc/i686-linux-gnu/5/crtendS.o
 .data          0x00000000000354a4        0x0 /usr/lib/gcc/i686-linux-gnu/5/../../../i386-linux-gnu/crtn.o

.tm_clone_table
                0x00000000000354a4        0x0
 .tm_clone_table
                0x00000000000354a4        0x0 /usr/lib/gcc/i686-linux-gnu/5/crtbeginS.o
 .tm_clone_table
                0x00000000000354a4        0x0 /usr/lib/gcc/i686-linux-gnu/5/crtendS.o

.data1
 *(.data1)
                0x00000000000354a4                _edata = .
                [!provide]                        PROVIDE (edata, .)
                0x00000000000354a4                . = .
                0x00000000000354a4                __bss_start = .

.bss            0x00000000000354c0    0x14504
 *(.dynbss)
 .dynbss        0x00000000000354c0        0x0 /usr/lib/gcc/i686-linux-gnu/5/../../../i386-linux-gnu/crti.o
 *(.bss .bss.* .gnu.linkonce.b.*)
 .bss           0x00000000000354c0        0x0 /usr/lib/gcc/i686-linux-gnu/5/../../../i386-linux-gnu/crti.o
 .bss           0x00000000000354c0        0x1 /usr/lib/gcc/i686-linux-gnu/5/crtbeginS.o
 *fill*         0x00000000000354c1       0x1f 
 .bss           0x00000000000354e0      0x18c client.o
                0x00000000000354e0                rpl_add
                0x00000000000354e1                registered
 *fill*         0x000000000003566c       0x14 
 .bss           0x0000000000035680     0x2030 build/cooja/mtype308.o
 .bss           0x00000000000376b0        0x1 build/cooja/mtype308.a(simEnvChange.o)
                0x00000000000376b0                simDontFallAsleep
 *fill*         0x00000000000376b1        0x3 
 .bss           0x00000000000376b4        0x4 build/cooja/mtype308.a(cooja_mt.o)
 .bss           0x00000000000376b8        0x4 build/cooja/mtype308.a(cooja_mtarch.o)
 .bss           0x00000000000376bc        0x0 build/cooja/mtype308.a(rtimer-arch.o)
 .bss           0x00000000000376bc        0x0 build/cooja/mtype308.a(beep.o)
 .bss           0x00000000000376bc        0x1 build/cooja/mtype308.a(leds-arch.o)
                0x00000000000376bc                simLedsValue
 .bss           0x00000000000376bd        0x0 build/cooja/mtype308.a(moteid.o)
 .bss           0x00000000000376bd        0x1 build/cooja/mtype308.a(pir-sensor.o)
                0x00000000000376bd                simPirValue
 *fill*         0x00000000000376be        0x2 
 .bss           0x00000000000376c0        0x4 build/cooja/mtype308.a(rs232.o)
 .bss           0x00000000000376c4        0x1 build/cooja/mtype308.a(vib-sensor.o)
                0x00000000000376c4                simVibValue
 .bss           0x00000000000376c5        0x0 build/cooja/mtype308.a(clock.o)
 *fill*         0x00000000000376c5       0x1b 
 .bss           0x00000000000376e0     0x2020 build/cooja/mtype308.a(cooja-log.o)
 .bss           0x0000000000039700      0xfc0 build/cooja/mtype308.a(cfs-cooja.o)
                0x0000000000039700                simCFSData
                0x000000000003a6a0                simCFSSize
                0x000000000003a6a4                simCFSChanged
                0x000000000003a6a8                simCFSRead
                0x000000000003a6ac                simCFSWritten
 .bss           0x000000000003a6c0       0x24 build/cooja/mtype308.a(cooja-radio.o)
                0x000000000003a6c0                simReceiving
                0x000000000003a6c4                simInSize
                0x000000000003a6c8                simLastPacketTimestamp
                0x000000000003a6d0                simOutSize
 .bss           0x000000000003a6e4        0xc build/cooja/mtype308.a(eeprom.o)
                0x000000000003a6e4                simEEPROMChanged
                0x000000000003a6e8                simEEPROMRead
                0x000000000003a6ec                simEEPROMWritten
 .bss           0x000000000003a6f0        0x0 build/cooja/mtype308.a(random.o)
 .bss           0x000000000003a6f0        0xc build/cooja/mtype308.a(sensors.o)
 .bss           0x000000000003a6fc        0x0 build/cooja/mtype308.a(leds.o)
 .bss           0x000000000003a6fc       0x24 build/cooja/mtype308.a(gpio-hal-arch.o)
 .bss           0x000000000003a720        0x0 build/cooja/mtype308.a(buttons.o)
 .bss           0x000000000003a720        0x8 build/cooja/mtype308.a(res_temperature)
                0x000000000003a720                name_assigned
 .bss           0x000000000003a728        0x0 build/cooja/mtype308.a(coap-blocking-a)
 *fill*         0x000000000003a728       0x18 
 .bss           0x000000000003a740      0x190 build/cooja/mtype308.a(coap-engine.o)
 .bss           0x000000000003a8d0        0x0 build/cooja/mtype308.a(coap-res-well-k)
 *fill*         0x000000000003a8d0       0x10 
 .bss           0x000000000003a8e0      0x120 build/cooja/mtype308.a(coap-observe.o)
 .bss           0x000000000003aa00       0x18 build/cooja/mtype308.a(coap-uip.o)
 .bss           0x000000000003aa18        0x5 build/cooja/mtype308.a(coap-timer.o)
 *fill*         0x000000000003aa1d        0x3 
 .bss           0x000000000003aa20      0x334 build/cooja/mtype308.a(coap-transactio)
 .bss           0x000000000003ad54        0x6 build/cooja/mtype308.a(coap.o)
                0x000000000003ad54                coap_status_code
 .bss           0x000000000003ad5a        0x0 build/cooja/mtype308.a(contiki-main.o)
 .bss           0x000000000003ad5a        0x0 build/cooja/mtype308.a(autostart.o)
 *fill*         0x000000000003ad5a        0x2 
 .bss           0x000000000003ad5c        0x5 build/cooja/mtype308.a(ctimer.o)
 *fill*         0x000000000003ad61        0x3 
 .bss           0x000000000003ad64       0x2c build/cooja/mtype308.a(log.o)
                0x000000000003ad64                curr_log_level_rpl
                0x000000000003ad68                curr_log_level_tcpip
                0x000000000003ad6c                curr_log_level_ipv6
                0x000000000003ad70                curr_log_level_6lowpan
                0x000000000003ad74                curr_log_level_nullnet
                0x000000000003ad78                curr_log_level_mac
                0x000000000003ad7c                curr_log_level_framer
                0x000000000003ad80                curr_log_level_6top
                0x000000000003ad84                curr_log_level_coap
                0x000000000003ad88                curr_log_level_snmp
                0x000000000003ad8c                curr_log_level_lwm2m
 .bss           0x000000000003ad90        0x0 build/cooja/mtype308.a(energest.o)
 .bss           0x000000000003ad90        0x8 build/cooja/mtype308.a(etimer.o)
 .bss           0x000000000003ad98        0x2 build/cooja/mtype308.a(node-id.o)
                0x000000000003ad98                node_id
 *fill*         0x000000000003ad9a        0x2 
 .bss           0x000000000003ad9c        0x4 build/cooja/mtype308.a(rtimer.o)
 .bss           0x000000000003ada0      0x1a1 build/cooja/mtype308.a(process.o)
                0x000000000003ada0                process_list
                0x000000000003ada4                process_current
 .bss           0x000000000003af41        0x0 build/cooja/mtype308.a(timer.o)
 .bss           0x000000000003af41        0x0 build/cooja/mtype308.a(list.o)
 .bss           0x000000000003af41        0x0 build/cooja/mtype308.a(memb.o)
 *fill*         0x000000000003af41        0x3 
 .bss           0x000000000003af44       0x10 build/cooja/mtype308.a(button-hal.o)
 *fill*         0x000000000003af54        0xc 
 .bss           0x000000000003af60      0x140 build/cooja/mtype308.a(serial-line.o)
 .bss           0x000000000003b0a0        0x4 build/cooja/mtype308.a(gpio-hal.o)
 *fill*         0x000000000003b0a4       0x1c 
 .bss           0x000000000003b0c0     0x2c80 build/cooja/mtype308.a(queuebuf.o)
 .bss           0x000000000003dd40       0xa0 build/cooja/mtype308.a(packetbuf.o)
 .bss           0x000000000003dde0        0x4 build/cooja/mtype308.a(netstack.o)
 .bss           0x000000000003dde4        0x0 build/cooja/mtype308.a(linkaddr.o)
 .bss           0x000000000003dde4        0x0 build/cooja/mtype308.a(csma.o)
 *fill*         0x000000000003dde4       0x1c 
 .bss           0x000000000003de00      0x726 build/cooja/mtype308.a(csma-output.o)
 *fill*         0x000000000003e526        0x2 
 .bss           0x000000000003e528       0x30 build/cooja/mtype308.a(uip-ds6.o)
 .bss           0x000000000003e558        0x0 build/cooja/mtype308.a(uip-udp-packet.)
 *fill*         0x000000000003e558        0x8 
 .bss           0x000000000003e560       0x60 build/cooja/mtype308.a(uip-ds6-route.o)
 .bss           0x000000000003e5c0       0x10 build/cooja/mtype308.a(tcpip.o)
 .bss           0x000000000003e5d0        0x8 build/cooja/mtype308.a(uip6.o)
                0x000000000003e5d0                uip_ext_bitmap
                0x000000000003e5d2                uip_ext_len
                0x000000000003e5d4                uip_last_proto
 *fill*         0x000000000003e5d8        0x8 
 .bss           0x000000000003e5e0     0x1c20 build/cooja/mtype308.a(uip-ds6-nbr.o)
 .bss           0x0000000000040200       0x10 build/cooja/mtype308.a(uip-nd6.o)
 *fill*         0x0000000000040210       0x10 
 .bss           0x0000000000040220      0x520 build/cooja/mtype308.a(simple-udp.o)
 .bss           0x0000000000040740      0x724 build/cooja/mtype308.a(sicslowpan.o)
 .bss           0x0000000000040e64        0x0 build/cooja/mtype308.a(uiplib.o)
 .bss           0x0000000000040e64        0x1 build/cooja/mtype308.a(rpl.o)
 .bss           0x0000000000040e65        0x0 build/cooja/mtype308.a(rpl-icmp6.o)
 *fill*         0x0000000000040e65        0x3 
 .bss           0x0000000000040e68       0x11 build/cooja/mtype308.a(rpl-dag-root.o)
 .bss           0x0000000000040e79        0x0 build/cooja/mtype308.a(watchdog.o)
 *fill*         0x0000000000040e79        0x3 
 .bss           0x0000000000040e7c        0x4 build/cooja/mtype308.a(int-master.o)
 .bss           0x0000000000040e80       0x1c build/cooja/mtype308.a(coap-timer-defa)
 .bss           0x0000000000040e9c        0x0 build/cooja/mtype308.a(stimer.o)
 .bss           0x0000000000040e9c        0x0 build/cooja/mtype308.a(ringbuf.o)
 .bss           0x0000000000040e9c        0x0 build/cooja/mtype308.a(assert.o)
 *fill*         0x0000000000040e9c        0x4 
 .bss           0x0000000000040ea0     0x1214 build/cooja/mtype308.a(nbr-table.o)
 *fill*         0x00000000000420b4        0xc 
 .bss           0x00000000000420c0      0xe10 build/cooja/mtype308.a(link-stats.o)
 *fill*         0x0000000000042ed0       0x10 
 .bss           0x0000000000042ee0      0x100 build/cooja/mtype308.a(mac-sequence.o)
 .bss           0x0000000000042fe0        0x0 build/cooja/mtype308.a(mac.o)
 .bss           0x0000000000042fe0        0x2 build/cooja/mtype308.a(framer-802154.o)
 .bss           0x0000000000042fe2        0x0 build/cooja/mtype308.a(frame802154.o)
 .bss           0x0000000000042fe2        0x0 build/cooja/mtype308.a(csma-security.o)
 *fill*         0x0000000000042fe2        0x2 
 .bss           0x0000000000042fe4       0x18 build/cooja/mtype308.a(uipbuf.o)
 .bss           0x0000000000042ffc       0x18 build/cooja/mtype308.a(uip-icmp6.o)
 *fill*         0x0000000000043014        0xc 
 .bss           0x0000000000043020     0x1d80 build/cooja/mtype308.a(uip-sr.o)
 .bss           0x0000000000044da0      0xa78 build/cooja/mtype308.a(uip-packetqueue)
 .bss           0x0000000000045818        0xe build/cooja/mtype308.a(rpl-nbr-policy.)
 *fill*         0x0000000000045826       0x1a 
 .bss           0x0000000000045840      0x960 build/cooja/mtype308.a(rpl-neighbor.o)
 .bss           0x00000000000461a0        0x0 build/cooja/mtype308.a(rpl-dag.o)
 .bss           0x00000000000461a0       0x40 build/cooja/mtype308.a(rpl-timers.o)
 .bss           0x00000000000461e0        0x0 build/cooja/mtype308.a(rpl-ext-header.)
 .bss           0x00000000000461e0        0x0 build/cooja/mtype308.a(rpl-mrhof.o)
 .bss           0x00000000000461e0        0x0 /usr/lib/gcc/i686-linux-gnu/5/libgcc.a(_udivdi3.o)
 .bss           0x00000000000461e0        0x0 /usr/lib/gcc/i686-linux-gnu/5/crtendS.o
 .bss           0x00000000000461e0        0x0 /usr/lib/gcc/i686-linux-gnu/5/../../../i386-linux-gnu/crtn.o
 *(COMMON)
 COMMON         0x00000000000461e0        0x8 build/cooja/mtype308.o
                0x00000000000461e0                referenceVar
                0x00000000000461e4                sensors_flags
 COMMON         0x00000000000461e8        0xc build/cooja/mtype308.a(simEnvChange.o)
                0x00000000000461e8                simEtimerPending
                0x00000000000461ec                simProcessRunValue
                0x00000000000461f0                simEtimerNextExpirationTime
 *fill*         0x00000000000461f4        0x4 
 COMMON         0x00000000000461f8       0x18 build/cooja/mtype308.a(rtimer-arch.o)
                0x00000000000461f8                simRtimerPending
                0x0000000000046200                simRtimerCurrentTicks
                0x0000000000046208                simRtimerNextExpirationTime
 COMMON         0x0000000000046210        0x1 build/cooja/mtype308.a(beep.o)
                0x0000000000046210                simBeeped
 *fill*         0x0000000000046211        0x3 
 COMMON         0x0000000000046214        0xc build/cooja/mtype308.a(moteid.o)
                0x0000000000046214                simRandomSeed
                0x0000000000046218                simMoteIDChanged
                0x000000000004621c                simMoteID
 COMMON         0x0000000000046220        0x2 build/cooja/mtype308.a(pir-sensor.o)
                0x0000000000046220                simPirIsActive
                0x0000000000046221                simPirChanged
 *fill*         0x0000000000046222       0x1e 
 COMMON         0x0000000000046240      0x820 build/cooja/mtype308.a(rs232.o)
                0x0000000000046240                simSerialReceivingFlag
                0x0000000000046244                simSerialReceivingLength
                0x0000000000046260                simSerialReceivingData
 COMMON         0x0000000000046a60        0x2 build/cooja/mtype308.a(vib-sensor.o)
                0x0000000000046a60                simVibChanged
                0x0000000000046a61                simVibIsActive
 *fill*         0x0000000000046a62        0x2 
 COMMON         0x0000000000046a64        0x4 build/cooja/mtype308.a(clock.o)
                0x0000000000046a64                simCurrentTime
 *fill*         0x0000000000046a68       0x18 
 COMMON         0x0000000000046a80     0x2020 build/cooja/mtype308.a(cooja-log.o)
                0x0000000000046a80                simLoggedLength
                0x0000000000046a84                simLoggedFlag
                0x0000000000046aa0                simLoggedData
 COMMON         0x0000000000048aa0       0xfd build/cooja/mtype308.a(cooja-radio.o)
                0x0000000000048aa0                simOutDataBuffer
                0x0000000000048b20                simInDataBuffer
 *fill*         0x0000000000048b9d        0x3 
 COMMON         0x0000000000048ba0      0x400 build/cooja/mtype308.a(eeprom.o)
                0x0000000000048ba0                simEEPROMData
 COMMON         0x0000000000048fa0        0x1 build/cooja/mtype308.a(sensors.o)
                0x0000000000048fa0                sensors_event
 COMMON         0x0000000000048fa1        0x2 build/cooja/mtype308.a(buttons.o)
                0x0000000000048fa1                simButtonIsDown
                0x0000000000048fa2                simButtonChanged
 *fill*         0x0000000000048fa3        0x1 
 COMMON         0x0000000000048fa4        0x4 build/cooja/mtype308.a(res_temperature)
                0x0000000000048fa4                mote_name
 COMMON         0x0000000000048fa8       0x60 build/cooja/mtype308.a(contiki-main.o)
                0x0000000000048fa8                eb_per_time_source
                0x0000000000048fc0                unicast_per_neighbor_rpl_storing
                0x0000000000048fd8                unicast_per_neighbor_rpl_ns
                0x0000000000048ff0                default_common
 COMMON         0x0000000000049008        0x3 build/cooja/mtype308.a(button-hal.o)
                0x0000000000049008                button_hal_periodic_event
                0x0000000000049009                button_hal_press_event
                0x000000000004900a                button_hal_release_event
 COMMON         0x000000000004900b        0x1 build/cooja/mtype308.a(serial-line.o)
                0x000000000004900b                serial_line_event_message
 COMMON         0x000000000004900c       0x2c build/cooja/mtype308.a(packetbuf.o)
                0x000000000004900c                packetbuf_attrs
                0x0000000000049028                packetbuf_addrs
 COMMON         0x0000000000049038        0x8 build/cooja/mtype308.a(linkaddr.o)
                0x0000000000049038                linkaddr_node_addr
 COMMON         0x0000000000049040      0x181 build/cooja/mtype308.a(uip-ds6.o)
                0x0000000000049040                uip_ds6_prefix_list
                0x00000000000490a0                uip_ds6_timer_periodic
                0x00000000000490b0                uip_ds6_netif_addr_list_offset
                0x00000000000490c0                uip_ds6_if
                0x00000000000491b8                uip_ds6_timer_ra
                0x00000000000491c0                uip_ds6_addr_size
 COMMON         0x00000000000491c1        0x1 build/cooja/mtype308.a(tcpip.o)
                0x00000000000491c1                tcpip_event
 *fill*         0x00000000000491c2       0x1e 
 COMMON         0x00000000000491e0      0x648 build/cooja/mtype308.a(uip6.o)
                0x00000000000491e0                uip_slen
                0x00000000000491e4                uip_lladdr
                0x00000000000491ec                uip_appdata
                0x00000000000491f0                uip_flags
                0x0000000000049200                uip_aligned_buf
                0x0000000000049700                uip_len
                0x0000000000049704                uip_sappdata
                0x0000000000049720                uip_udp_conns
                0x0000000000049820                uip_udp_conn
                0x0000000000049824                uip_conn
 COMMON         0x0000000000049828       0x10 build/cooja/mtype308.a(rpl.o)
                0x0000000000049828                rpl_multicast_addr
 *fill*         0x0000000000049838        0x8 
 COMMON         0x0000000000049840       0x20 build/cooja/mtype308.a(link-stats.o)
                0x0000000000049840                periodic_timer
 COMMON         0x0000000000049860      0x164 build/cooja/mtype308.a(rpl-dag.o)
                0x0000000000049860                curr_instance
                0x00000000000499c4                . = ALIGN ((. != 0x0)?0x4:0x1)
                0x00000000000499c4                . = ALIGN (0x4)
                0x00000000000499c4                . = SEGMENT_START ("ldata-segment", .)
                0x00000000000499c4                . = ALIGN (0x4)
                0x00000000000499c4                _end = .
                [!provide]                        PROVIDE (end, .)
                0x00000000000499c4                . = DATA_SEGMENT_END (.)

.stab
 *(.stab)

.stabstr
 *(.stabstr)

.stab.excl
 *(.stab.excl)

.stab.exclstr
 *(.stab.exclstr)

.stab.index
 *(.stab.index)

.stab.indexstr
 *(.stab.indexstr)

.comment        0x0000000000000000       0x35
 *(.comment)
 .comment       0x0000000000000000       0x35 /usr/lib/gcc/i686-linux-gnu/5/crtbeginS.o
                                         0x36 (size before relaxing)
 .comment       0x0000000000000035       0x36 client.o
 .comment       0x0000000000000035       0x36 build/cooja/mtype308.o
 .comment       0x0000000000000035       0x36 build/cooja/mtype308.a(simEnvChange.o)
 .comment       0x0000000000000035       0x36 build/cooja/mtype308.a(cooja_mt.o)
 .comment       0x0000000000000035       0x36 build/cooja/mtype308.a(cooja_mtarch.o)
 .comment       0x0000000000000035       0x36 build/cooja/mtype308.a(rtimer-arch.o)
 .comment       0x0000000000000035       0x36 build/cooja/mtype308.a(beep.o)
 .comment       0x0000000000000035       0x36 build/cooja/mtype308.a(leds-arch.o)
 .comment       0x0000000000000035       0x36 build/cooja/mtype308.a(moteid.o)
 .comment       0x0000000000000035       0x36 build/cooja/mtype308.a(pir-sensor.o)
 .comment       0x0000000000000035       0x36 build/cooja/mtype308.a(rs232.o)
 .comment       0x0000000000000035       0x36 build/cooja/mtype308.a(vib-sensor.o)
 .comment       0x0000000000000035       0x36 build/cooja/mtype308.a(clock.o)
 .comment       0x0000000000000035       0x36 build/cooja/mtype308.a(cooja-log.o)
 .comment       0x0000000000000035       0x36 build/cooja/mtype308.a(cfs-cooja.o)
 .comment       0x0000000000000035       0x36 build/cooja/mtype308.a(cooja-radio.o)
 .comment       0x0000000000000035       0x36 build/cooja/mtype308.a(eeprom.o)
 .comment       0x0000000000000035       0x36 build/cooja/mtype308.a(random.o)
 .comment       0x0000000000000035       0x36 build/cooja/mtype308.a(sensors.o)
 .comment       0x0000000000000035       0x36 build/cooja/mtype308.a(leds.o)
 .comment       0x0000000000000035       0x36 build/cooja/mtype308.a(gpio-hal-arch.o)
 .comment       0x0000000000000035       0x36 build/cooja/mtype308.a(buttons.o)
 .comment       0x0000000000000035       0x36 build/cooja/mtype308.a(res_temperature)
 .comment       0x0000000000000035       0x36 build/cooja/mtype308.a(coap-blocking-a)
 .comment       0x0000000000000035       0x36 build/cooja/mtype308.a(coap-engine.o)
 .comment       0x0000000000000035       0x36 build/cooja/mtype308.a(coap-res-well-k)
 .comment       0x0000000000000035       0x36 build/cooja/mtype308.a(coap-observe.o)
 .comment       0x0000000000000035       0x36 build/cooja/mtype308.a(coap-uip.o)
 .comment       0x0000000000000035       0x36 build/cooja/mtype308.a(coap-timer.o)
 .comment       0x0000000000000035       0x36 build/cooja/mtype308.a(coap-transactio)
 .comment       0x0000000000000035       0x36 build/cooja/mtype308.a(coap.o)
 .comment       0x0000000000000035       0x36 build/cooja/mtype308.a(contiki-main.o)
 .comment       0x0000000000000035       0x36 build/cooja/mtype308.a(autostart.o)
 .comment       0x0000000000000035       0x36 build/cooja/mtype308.a(ctimer.o)
 .comment       0x0000000000000035       0x36 build/cooja/mtype308.a(log.o)
 .comment       0x0000000000000035       0x36 build/cooja/mtype308.a(energest.o)
 .comment       0x0000000000000035       0x36 build/cooja/mtype308.a(etimer.o)
 .comment       0x0000000000000035       0x36 build/cooja/mtype308.a(node-id.o)
 .comment       0x0000000000000035       0x36 build/cooja/mtype308.a(rtimer.o)
 .comment       0x0000000000000035       0x36 build/cooja/mtype308.a(process.o)
 .comment       0x0000000000000035       0x36 build/cooja/mtype308.a(timer.o)
 .comment       0x0000000000000035       0x36 build/cooja/mtype308.a(list.o)
 .comment       0x0000000000000035       0x36 build/cooja/mtype308.a(memb.o)
 .comment       0x0000000000000035       0x36 build/cooja/mtype308.a(button-hal.o)
 .comment       0x0000000000000035       0x36 build/cooja/mtype308.a(serial-line.o)
 .comment       0x0000000000000035       0x36 build/cooja/mtype308.a(gpio-hal.o)
 .comment       0x0000000000000035       0x36 build/cooja/mtype308.a(queuebuf.o)
 .comment       0x0000000000000035       0x36 build/cooja/mtype308.a(packetbuf.o)
 .comment       0x0000000000000035       0x36 build/cooja/mtype308.a(netstack.o)
 .comment       0x0000000000000035       0x36 build/cooja/mtype308.a(linkaddr.o)
 .comment       0x0000000000000035       0x36 build/cooja/mtype308.a(csma.o)
 .comment       0x0000000000000035       0x36 build/cooja/mtype308.a(csma-output.o)
 .comment       0x0000000000000035       0x36 build/cooja/mtype308.a(uip-ds6.o)
 .comment       0x0000000000000035       0x36 build/cooja/mtype308.a(uip-udp-packet.)
 .comment       0x0000000000000035       0x36 build/cooja/mtype308.a(uip-ds6-route.o)
 .comment       0x0000000000000035       0x36 build/cooja/mtype308.a(tcpip.o)
 .comment       0x0000000000000035       0x36 build/cooja/mtype308.a(uip6.o)
 .comment       0x0000000000000035       0x36 build/cooja/mtype308.a(uip-ds6-nbr.o)
 .comment       0x0000000000000035       0x36 build/cooja/mtype308.a(uip-nd6.o)
 .comment       0x0000000000000035       0x36 build/cooja/mtype308.a(simple-udp.o)
 .comment       0x0000000000000035       0x36 build/cooja/mtype308.a(sicslowpan.o)
 .comment       0x0000000000000035       0x36 build/cooja/mtype308.a(uiplib.o)
 .comment       0x0000000000000035       0x36 build/cooja/mtype308.a(rpl.o)
 .comment       0x0000000000000035       0x36 build/cooja/mtype308.a(rpl-icmp6.o)
 .comment       0x0000000000000035       0x36 build/cooja/mtype308.a(rpl-dag-root.o)
 .comment       0x0000000000000035       0x36 build/cooja/mtype308.a(watchdog.o)
 .comment       0x0000000000000035       0x36 build/cooja/mtype308.a(int-master.o)
 .comment       0x0000000000000035       0x36 build/cooja/mtype308.a(coap-timer-defa)
 .comment       0x0000000000000035       0x36 build/cooja/mtype308.a(stimer.o)
 .comment       0x0000000000000035       0x36 build/cooja/mtype308.a(ringbuf.o)
 .comment       0x0000000000000035       0x36 build/cooja/mtype308.a(assert.o)
 .comment       0x0000000000000035       0x36 build/cooja/mtype308.a(nbr-table.o)
 .comment       0x0000000000000035       0x36 build/cooja/mtype308.a(link-stats.o)
 .comment       0x0000000000000035       0x36 build/cooja/mtype308.a(mac-sequence.o)
 .comment       0x0000000000000035       0x36 build/cooja/mtype308.a(mac.o)
 .comment       0x0000000000000035       0x36 build/cooja/mtype308.a(framer-802154.o)
 .comment       0x0000000000000035       0x36 build/cooja/mtype308.a(frame802154.o)
 .comment       0x0000000000000035       0x36 build/cooja/mtype308.a(csma-security.o)
 .comment       0x0000000000000035       0x36 build/cooja/mtype308.a(uipbuf.o)
 .comment       0x0000000000000035       0x36 build/cooja/mtype308.a(uip-icmp6.o)
 .comment       0x0000000000000035       0x36 build/cooja/mtype308.a(uip-sr.o)
 .comment       0x0000000000000035       0x36 build/cooja/mtype308.a(uip-packetqueue)
 .comment       0x0000000000000035       0x36 build/cooja/mtype308.a(rpl-nbr-policy.)
 .comment       0x0000000000000035       0x36 build/cooja/mtype308.a(rpl-neighbor.o)
 .comment       0x0000000000000035       0x36 build/cooja/mtype308.a(rpl-dag.o)
 .comment       0x0000000000000035       0x36 build/cooja/mtype308.a(rpl-timers.o)
 .comment       0x0000000000000035       0x36 build/cooja/mtype308.a(rpl-ext-header.)
 .comment       0x0000000000000035       0x36 build/cooja/mtype308.a(rpl-mrhof.o)
 .comment       0x0000000000000035       0x36 /usr/lib/gcc/i686-linux-gnu/5/crtendS.o

.debug
 *(.debug)

.line
 *(.line)

.debug_srcinfo
 *(.debug_srcinfo)

.debug_sfnames
 *(.debug_sfnames)

.debug_aranges  0x0000000000000000      0xb00
 *(.debug_aranges)
 .debug_aranges
                0x0000000000000000       0x20 client.o
 .debug_aranges
                0x0000000000000020       0x20 build/cooja/mtype308.o
 .debug_aranges
                0x0000000000000040       0x20 build/cooja/mtype308.a(simEnvChange.o)
 .debug_aranges
                0x0000000000000060       0x20 build/cooja/mtype308.a(cooja_mt.o)
 .debug_aranges
                0x0000000000000080       0x20 build/cooja/mtype308.a(cooja_mtarch.o)
 .debug_aranges
                0x00000000000000a0       0x20 build/cooja/mtype308.a(rtimer-arch.o)
 .debug_aranges
                0x00000000000000c0       0x20 build/cooja/mtype308.a(beep.o)
 .debug_aranges
                0x00000000000000e0       0x20 build/cooja/mtype308.a(leds-arch.o)
 .debug_aranges
                0x0000000000000100       0x20 build/cooja/mtype308.a(moteid.o)
 .debug_aranges
                0x0000000000000120       0x20 build/cooja/mtype308.a(pir-sensor.o)
 .debug_aranges
                0x0000000000000140       0x20 build/cooja/mtype308.a(rs232.o)
 .debug_aranges
                0x0000000000000160       0x20 build/cooja/mtype308.a(vib-sensor.o)
 .debug_aranges
                0x0000000000000180       0x20 build/cooja/mtype308.a(clock.o)
 .debug_aranges
                0x00000000000001a0       0x20 build/cooja/mtype308.a(cooja-log.o)
 .debug_aranges
                0x00000000000001c0       0x20 build/cooja/mtype308.a(cfs-cooja.o)
 .debug_aranges
                0x00000000000001e0       0x20 build/cooja/mtype308.a(cooja-radio.o)
 .debug_aranges
                0x0000000000000200       0x20 build/cooja/mtype308.a(eeprom.o)
 .debug_aranges
                0x0000000000000220       0x20 build/cooja/mtype308.a(random.o)
 .debug_aranges
                0x0000000000000240       0x20 build/cooja/mtype308.a(sensors.o)
 .debug_aranges
                0x0000000000000260       0x20 build/cooja/mtype308.a(leds.o)
 .debug_aranges
                0x0000000000000280       0x20 build/cooja/mtype308.a(gpio-hal-arch.o)
 .debug_aranges
                0x00000000000002a0       0x20 build/cooja/mtype308.a(buttons.o)
 .debug_aranges
                0x00000000000002c0       0x20 build/cooja/mtype308.a(res_temperature)
 .debug_aranges
                0x00000000000002e0       0x20 build/cooja/mtype308.a(coap-blocking-a)
 .debug_aranges
                0x0000000000000300       0x20 build/cooja/mtype308.a(coap-engine.o)
 .debug_aranges
                0x0000000000000320       0x20 build/cooja/mtype308.a(coap-res-well-k)
 .debug_aranges
                0x0000000000000340       0x20 build/cooja/mtype308.a(coap-observe.o)
 .debug_aranges
                0x0000000000000360       0x20 build/cooja/mtype308.a(coap-uip.o)
 .debug_aranges
                0x0000000000000380       0x20 build/cooja/mtype308.a(coap-timer.o)
 .debug_aranges
                0x00000000000003a0       0x20 build/cooja/mtype308.a(coap-transactio)
 .debug_aranges
                0x00000000000003c0       0x20 build/cooja/mtype308.a(coap.o)
 .debug_aranges
                0x00000000000003e0       0x20 build/cooja/mtype308.a(contiki-main.o)
 .debug_aranges
                0x0000000000000400       0x20 build/cooja/mtype308.a(autostart.o)
 .debug_aranges
                0x0000000000000420       0x20 build/cooja/mtype308.a(ctimer.o)
 .debug_aranges
                0x0000000000000440       0x20 build/cooja/mtype308.a(log.o)
 .debug_aranges
                0x0000000000000460       0x20 build/cooja/mtype308.a(energest.o)
 .debug_aranges
                0x0000000000000480       0x20 build/cooja/mtype308.a(etimer.o)
 .debug_aranges
                0x00000000000004a0       0x20 build/cooja/mtype308.a(node-id.o)
 .debug_aranges
                0x00000000000004c0       0x20 build/cooja/mtype308.a(rtimer.o)
 .debug_aranges
                0x00000000000004e0       0x20 build/cooja/mtype308.a(process.o)
 .debug_aranges
                0x0000000000000500       0x20 build/cooja/mtype308.a(timer.o)
 .debug_aranges
                0x0000000000000520       0x20 build/cooja/mtype308.a(list.o)
 .debug_aranges
                0x0000000000000540       0x20 build/cooja/mtype308.a(memb.o)
 .debug_aranges
                0x0000000000000560       0x20 build/cooja/mtype308.a(button-hal.o)
 .debug_aranges
                0x0000000000000580       0x20 build/cooja/mtype308.a(serial-line.o)
 .debug_aranges
                0x00000000000005a0       0x20 build/cooja/mtype308.a(gpio-hal.o)
 .debug_aranges
                0x00000000000005c0       0x20 build/cooja/mtype308.a(queuebuf.o)
 .debug_aranges
                0x00000000000005e0       0x20 build/cooja/mtype308.a(packetbuf.o)
 .debug_aranges
                0x0000000000000600       0x20 build/cooja/mtype308.a(netstack.o)
 .debug_aranges
                0x0000000000000620       0x20 build/cooja/mtype308.a(linkaddr.o)
 .debug_aranges
                0x0000000000000640       0x20 build/cooja/mtype308.a(csma.o)
 .debug_aranges
                0x0000000000000660       0x20 build/cooja/mtype308.a(csma-output.o)
 .debug_aranges
                0x0000000000000680       0x20 build/cooja/mtype308.a(uip-ds6.o)
 .debug_aranges
                0x00000000000006a0       0x20 build/cooja/mtype308.a(uip-udp-packet.)
 .debug_aranges
                0x00000000000006c0       0x20 build/cooja/mtype308.a(uip-ds6-route.o)
 .debug_aranges
                0x00000000000006e0       0x20 build/cooja/mtype308.a(tcpip.o)
 .debug_aranges
                0x0000000000000700       0x20 build/cooja/mtype308.a(uip6.o)
 .debug_aranges
                0x0000000000000720       0x20 build/cooja/mtype308.a(uip-ds6-nbr.o)
 .debug_aranges
                0x0000000000000740       0x20 build/cooja/mtype308.a(uip-nd6.o)
 .debug_aranges
                0x0000000000000760       0x20 build/cooja/mtype308.a(simple-udp.o)
 .debug_aranges
                0x0000000000000780       0x20 build/cooja/mtype308.a(sicslowpan.o)
 .debug_aranges
                0x00000000000007a0       0x20 build/cooja/mtype308.a(uiplib.o)
 .debug_aranges
                0x00000000000007c0       0x20 build/cooja/mtype308.a(rpl.o)
 .debug_aranges
                0x00000000000007e0       0x20 build/cooja/mtype308.a(rpl-icmp6.o)
 .debug_aranges
                0x0000000000000800       0x20 build/cooja/mtype308.a(rpl-dag-root.o)
 .debug_aranges
                0x0000000000000820       0x20 build/cooja/mtype308.a(watchdog.o)
 .debug_aranges
                0x0000000000000840       0x20 build/cooja/mtype308.a(int-master.o)
 .debug_aranges
                0x0000000000000860       0x20 build/cooja/mtype308.a(coap-timer-defa)
 .debug_aranges
                0x0000000000000880       0x20 build/cooja/mtype308.a(stimer.o)
 .debug_aranges
                0x00000000000008a0       0x20 build/cooja/mtype308.a(ringbuf.o)
 .debug_aranges
                0x00000000000008c0       0x20 build/cooja/mtype308.a(assert.o)
 .debug_aranges
                0x00000000000008e0       0x20 build/cooja/mtype308.a(nbr-table.o)
 .debug_aranges
                0x0000000000000900       0x20 build/cooja/mtype308.a(link-stats.o)
 .debug_aranges
                0x0000000000000920       0x20 build/cooja/mtype308.a(mac-sequence.o)
 .debug_aranges
                0x0000000000000940       0x20 build/cooja/mtype308.a(mac.o)
 .debug_aranges
                0x0000000000000960       0x20 build/cooja/mtype308.a(framer-802154.o)
 .debug_aranges
                0x0000000000000980       0x20 build/cooja/mtype308.a(frame802154.o)
 .debug_aranges
                0x00000000000009a0       0x20 build/cooja/mtype308.a(csma-security.o)
 .debug_aranges
                0x00000000000009c0       0x20 build/cooja/mtype308.a(uipbuf.o)
 .debug_aranges
                0x00000000000009e0       0x20 build/cooja/mtype308.a(uip-icmp6.o)
 .debug_aranges
                0x0000000000000a00       0x20 build/cooja/mtype308.a(uip-sr.o)
 .debug_aranges
                0x0000000000000a20       0x20 build/cooja/mtype308.a(uip-packetqueue)
 .debug_aranges
                0x0000000000000a40       0x20 build/cooja/mtype308.a(rpl-nbr-policy.)
 .debug_aranges
                0x0000000000000a60       0x20 build/cooja/mtype308.a(rpl-neighbor.o)
 .debug_aranges
                0x0000000000000a80       0x20 build/cooja/mtype308.a(rpl-dag.o)
 .debug_aranges
                0x0000000000000aa0       0x20 build/cooja/mtype308.a(rpl-timers.o)
 .debug_aranges
                0x0000000000000ac0       0x20 build/cooja/mtype308.a(rpl-ext-header.)
 .debug_aranges
                0x0000000000000ae0       0x20 build/cooja/mtype308.a(rpl-mrhof.o)

.debug_pubnames
 *(.debug_pubnames)

.debug_info     0x0000000000000000    0x27856
 *(.debug_info .gnu.linkonce.wi.*)
 .debug_info    0x0000000000000000     0x134c client.o
 .debug_info    0x000000000000134c     0x325a build/cooja/mtype308.o
 .debug_info    0x00000000000045a6      0x15a build/cooja/mtype308.a(simEnvChange.o)
 .debug_info    0x0000000000004700      0x1af build/cooja/mtype308.a(cooja_mt.o)
 .debug_info    0x00000000000048af      0x212 build/cooja/mtype308.a(cooja_mtarch.o)
 .debug_info    0x0000000000004ac1      0x181 build/cooja/mtype308.a(rtimer-arch.o)
 .debug_info    0x0000000000004c42      0x1fa build/cooja/mtype308.a(beep.o)
 .debug_info    0x0000000000004e3c      0x194 build/cooja/mtype308.a(leds-arch.o)
 .debug_info    0x0000000000004fd0      0x111 build/cooja/mtype308.a(moteid.o)
 .debug_info    0x00000000000050e1      0x21d build/cooja/mtype308.a(pir-sensor.o)
 .debug_info    0x00000000000052fe      0x21e build/cooja/mtype308.a(rs232.o)
 .debug_info    0x000000000000551c      0x21d build/cooja/mtype308.a(vib-sensor.o)
 .debug_info    0x0000000000005739      0x159 build/cooja/mtype308.a(clock.o)
 .debug_info    0x0000000000005892      0x2bb build/cooja/mtype308.a(cooja-log.o)
 .debug_info    0x0000000000005b4d      0x3cf build/cooja/mtype308.a(cfs-cooja.o)
 .debug_info    0x0000000000005f1c      0xb0a build/cooja/mtype308.a(cooja-radio.o)
 .debug_info    0x0000000000006a26      0x1d5 build/cooja/mtype308.a(eeprom.o)
 .debug_info    0x0000000000006bfb       0xb3 build/cooja/mtype308.a(random.o)
 .debug_info    0x0000000000006cae      0x36d build/cooja/mtype308.a(sensors.o)
 .debug_info    0x000000000000701b      0x28a build/cooja/mtype308.a(leds.o)
 .debug_info    0x00000000000072a5      0x40e build/cooja/mtype308.a(gpio-hal-arch.o)
 .debug_info    0x00000000000076b3      0x4bc build/cooja/mtype308.a(buttons.o)
 .debug_info    0x0000000000007b6f      0x9ea build/cooja/mtype308.a(res_temperature)
 .debug_info    0x0000000000008559      0x836 build/cooja/mtype308.a(coap-blocking-a)
 .debug_info    0x0000000000008d8f      0xe93 build/cooja/mtype308.a(coap-engine.o)
 .debug_info    0x0000000000009c22      0x8a4 build/cooja/mtype308.a(coap-res-well-k)
 .debug_info    0x000000000000a4c6      0xdd0 build/cooja/mtype308.a(coap-observe.o)
 .debug_info    0x000000000000b296      0xe48 build/cooja/mtype308.a(coap-uip.o)
 .debug_info    0x000000000000c0de      0x2f1 build/cooja/mtype308.a(coap-timer.o)
 .debug_info    0x000000000000c3cf      0x862 build/cooja/mtype308.a(coap-transactio)
 .debug_info    0x000000000000cc31     0x14c2 build/cooja/mtype308.a(coap.o)
 .debug_info    0x000000000000e0f3      0xf52 build/cooja/mtype308.a(contiki-main.o)
 .debug_info    0x000000000000f045      0x1ac build/cooja/mtype308.a(autostart.o)
 .debug_info    0x000000000000f1f1      0x473 build/cooja/mtype308.a(ctimer.o)
 .debug_info    0x000000000000f664      0x483 build/cooja/mtype308.a(log.o)
 .debug_info    0x000000000000fae7       0xbc build/cooja/mtype308.a(energest.o)
 .debug_info    0x000000000000fba3      0x49f build/cooja/mtype308.a(etimer.o)
 .debug_info    0x0000000000010042       0xfb build/cooja/mtype308.a(node-id.o)
 .debug_info    0x000000000001013d      0x1c1 build/cooja/mtype308.a(rtimer.o)
 .debug_info    0x00000000000102fe      0x4ab build/cooja/mtype308.a(process.o)
 .debug_info    0x00000000000107a9      0x17a build/cooja/mtype308.a(timer.o)
 .debug_info    0x0000000000010923      0x38b build/cooja/mtype308.a(list.o)
 .debug_info    0x0000000000010cae      0x1e4 build/cooja/mtype308.a(memb.o)
 .debug_info    0x0000000000010e92      0x60c build/cooja/mtype308.a(button-hal.o)
 .debug_info    0x000000000001149e      0x2de build/cooja/mtype308.a(serial-line.o)
 .debug_info    0x000000000001177c      0x25d build/cooja/mtype308.a(gpio-hal.o)
 .debug_info    0x00000000000119d9      0x570 build/cooja/mtype308.a(queuebuf.o)
 .debug_info    0x0000000000011f49      0x553 build/cooja/mtype308.a(packetbuf.o)
 .debug_info    0x000000000001249c      0x56a build/cooja/mtype308.a(netstack.o)
 .debug_info    0x0000000000012a06      0x18b build/cooja/mtype308.a(linkaddr.o)
 .debug_info    0x0000000000012b91      0x68e build/cooja/mtype308.a(csma.o)
 .debug_info    0x000000000001321f      0xc80 build/cooja/mtype308.a(csma-output.o)
 .debug_info    0x0000000000013e9f      0xae8 build/cooja/mtype308.a(uip-ds6.o)
 .debug_info    0x0000000000014987      0x37a build/cooja/mtype308.a(uip-udp-packet.)
 .debug_info    0x0000000000014d01      0x881 build/cooja/mtype308.a(uip-ds6-route.o)
 .debug_info    0x0000000000015582      0xf3d build/cooja/mtype308.a(tcpip.o)
 .debug_info    0x00000000000164bf     0x116c build/cooja/mtype308.a(uip6.o)
 .debug_info    0x000000000001762b      0xb97 build/cooja/mtype308.a(uip-ds6-nbr.o)
 .debug_info    0x00000000000181c2      0x7fb build/cooja/mtype308.a(uip-nd6.o)
 .debug_info    0x00000000000189bd      0x6a6 build/cooja/mtype308.a(simple-udp.o)
 .debug_info    0x0000000000019063     0x1723 build/cooja/mtype308.a(sicslowpan.o)
 .debug_info    0x000000000001a786      0x30b build/cooja/mtype308.a(uiplib.o)
 .debug_info    0x000000000001aa91     0x10bb build/cooja/mtype308.a(rpl.o)
 .debug_info    0x000000000001bb4c     0x1065 build/cooja/mtype308.a(rpl-icmp6.o)
 .debug_info    0x000000000001cbb1      0xb33 build/cooja/mtype308.a(rpl-dag-root.o)
 .debug_info    0x000000000001d6e4       0xda build/cooja/mtype308.a(watchdog.o)
 .debug_info    0x000000000001d7be      0x119 build/cooja/mtype308.a(int-master.o)
 .debug_info    0x000000000001d8d7      0x330 build/cooja/mtype308.a(coap-timer-defa)
 .debug_info    0x000000000001dc07      0x187 build/cooja/mtype308.a(stimer.o)
 .debug_info    0x000000000001dd8e      0x1b8 build/cooja/mtype308.a(ringbuf.o)
 .debug_info    0x000000000001df46       0xb3 build/cooja/mtype308.a(assert.o)
 .debug_info    0x000000000001dff9      0x95a build/cooja/mtype308.a(nbr-table.o)
 .debug_info    0x000000000001e953      0x67c build/cooja/mtype308.a(link-stats.o)
 .debug_info    0x000000000001efcf      0x213 build/cooja/mtype308.a(mac-sequence.o)
 .debug_info    0x000000000001f1e2       0xf3 build/cooja/mtype308.a(mac.o)
 .debug_info    0x000000000001f2d5      0x512 build/cooja/mtype308.a(framer-802154.o)
 .debug_info    0x000000000001f7e7      0x738 build/cooja/mtype308.a(frame802154.o)
 .debug_info    0x000000000001ff1f      0x166 build/cooja/mtype308.a(csma-security.o)
 .debug_info    0x0000000000020085      0x575 build/cooja/mtype308.a(uipbuf.o)
 .debug_info    0x00000000000205fa      0xd4a build/cooja/mtype308.a(uip-icmp6.o)
 .debug_info    0x0000000000021344      0xb31 build/cooja/mtype308.a(uip-sr.o)
 .debug_info    0x0000000000021e75      0x477 build/cooja/mtype308.a(uip-packetqueue)
 .debug_info    0x00000000000222ec      0xc0e build/cooja/mtype308.a(rpl-nbr-policy.)
 .debug_info    0x0000000000022efa      0xe69 build/cooja/mtype308.a(rpl-neighbor.o)
 .debug_info    0x0000000000023d63      0xfe3 build/cooja/mtype308.a(rpl-dag.o)
 .debug_info    0x0000000000024d46      0xcbb build/cooja/mtype308.a(rpl-timers.o)
 .debug_info    0x0000000000025a01     0x1496 build/cooja/mtype308.a(rpl-ext-header.)
 .debug_info    0x0000000000026e97      0x9bf build/cooja/mtype308.a(rpl-mrhof.o)

.debug_abbrev   0x0000000000000000     0x9276
 *(.debug_abbrev)
 .debug_abbrev  0x0000000000000000      0x23b client.o
 .debug_abbrev  0x000000000000023b      0x27e build/cooja/mtype308.o
 .debug_abbrev  0x00000000000004b9       0xc3 build/cooja/mtype308.a(simEnvChange.o)
 .debug_abbrev  0x000000000000057c       0xe6 build/cooja/mtype308.a(cooja_mt.o)
 .debug_abbrev  0x0000000000000662      0x11e build/cooja/mtype308.a(cooja_mtarch.o)
 .debug_abbrev  0x0000000000000780       0xeb build/cooja/mtype308.a(rtimer-arch.o)
 .debug_abbrev  0x000000000000086b       0xe3 build/cooja/mtype308.a(beep.o)
 .debug_abbrev  0x000000000000094e       0xe0 build/cooja/mtype308.a(leds-arch.o)
 .debug_abbrev  0x0000000000000a2e       0x9c build/cooja/mtype308.a(moteid.o)
 .debug_abbrev  0x0000000000000aca       0xe6 build/cooja/mtype308.a(pir-sensor.o)
 .debug_abbrev  0x0000000000000bb0      0x14a build/cooja/mtype308.a(rs232.o)
 .debug_abbrev  0x0000000000000cfa       0xe6 build/cooja/mtype308.a(vib-sensor.o)
 .debug_abbrev  0x0000000000000de0       0xee build/cooja/mtype308.a(clock.o)
 .debug_abbrev  0x0000000000000ece      0x141 build/cooja/mtype308.a(cooja-log.o)
 .debug_abbrev  0x000000000000100f      0x139 build/cooja/mtype308.a(cfs-cooja.o)
 .debug_abbrev  0x0000000000001148      0x2ef build/cooja/mtype308.a(cooja-radio.o)
 .debug_abbrev  0x0000000000001437       0xf5 build/cooja/mtype308.a(eeprom.o)
 .debug_abbrev  0x000000000000152c       0x6d build/cooja/mtype308.a(random.o)
 .debug_abbrev  0x0000000000001599      0x1c2 build/cooja/mtype308.a(sensors.o)
 .debug_abbrev  0x000000000000175b       0xfc build/cooja/mtype308.a(leds.o)
 .debug_abbrev  0x0000000000001857      0x115 build/cooja/mtype308.a(gpio-hal-arch.o)
 .debug_abbrev  0x000000000000196c      0x16f build/cooja/mtype308.a(buttons.o)
 .debug_abbrev  0x0000000000001adb      0x1a6 build/cooja/mtype308.a(res_temperature)
 .debug_abbrev  0x0000000000001c81      0x1c3 build/cooja/mtype308.a(coap-blocking-a)
 .debug_abbrev  0x0000000000001e44      0x2d5 build/cooja/mtype308.a(coap-engine.o)
 .debug_abbrev  0x0000000000002119      0x169 build/cooja/mtype308.a(coap-res-well-k)
 .debug_abbrev  0x0000000000002282      0x234 build/cooja/mtype308.a(coap-observe.o)
 .debug_abbrev  0x00000000000024b6      0x378 build/cooja/mtype308.a(coap-uip.o)
 .debug_abbrev  0x000000000000282e      0x155 build/cooja/mtype308.a(coap-timer.o)
 .debug_abbrev  0x0000000000002983      0x1c4 build/cooja/mtype308.a(coap-transactio)
 .debug_abbrev  0x0000000000002b47      0x23c build/cooja/mtype308.a(coap.o)
 .debug_abbrev  0x0000000000002d83      0x1ef build/cooja/mtype308.a(contiki-main.o)
 .debug_abbrev  0x0000000000002f72       0xfb build/cooja/mtype308.a(autostart.o)
 .debug_abbrev  0x000000000000306d      0x1a1 build/cooja/mtype308.a(ctimer.o)
 .debug_abbrev  0x000000000000320e      0x159 build/cooja/mtype308.a(log.o)
 .debug_abbrev  0x0000000000003367       0x69 build/cooja/mtype308.a(energest.o)
 .debug_abbrev  0x00000000000033d0      0x1f8 build/cooja/mtype308.a(etimer.o)
 .debug_abbrev  0x00000000000035c8       0x9d build/cooja/mtype308.a(node-id.o)
 .debug_abbrev  0x0000000000003665      0x126 build/cooja/mtype308.a(rtimer.o)
 .debug_abbrev  0x000000000000378b      0x244 build/cooja/mtype308.a(process.o)
 .debug_abbrev  0x00000000000039cf       0xdb build/cooja/mtype308.a(timer.o)
 .debug_abbrev  0x0000000000003aaa      0x136 build/cooja/mtype308.a(list.o)
 .debug_abbrev  0x0000000000003be0       0xe4 build/cooja/mtype308.a(memb.o)
 .debug_abbrev  0x0000000000003cc4      0x1ea build/cooja/mtype308.a(button-hal.o)
 .debug_abbrev  0x0000000000003eae      0x190 build/cooja/mtype308.a(serial-line.o)
 .debug_abbrev  0x000000000000403e       0xd4 build/cooja/mtype308.a(gpio-hal.o)
 .debug_abbrev  0x0000000000004112      0x1a6 build/cooja/mtype308.a(queuebuf.o)
 .debug_abbrev  0x00000000000042b8      0x1da build/cooja/mtype308.a(packetbuf.o)
 .debug_abbrev  0x0000000000004492      0x1d5 build/cooja/mtype308.a(netstack.o)
 .debug_abbrev  0x0000000000004667       0xf2 build/cooja/mtype308.a(linkaddr.o)
 .debug_abbrev  0x0000000000004759      0x1ff build/cooja/mtype308.a(csma.o)
 .debug_abbrev  0x0000000000004958      0x269 build/cooja/mtype308.a(csma-output.o)
 .debug_abbrev  0x0000000000004bc1      0x272 build/cooja/mtype308.a(uip-ds6.o)
 .debug_abbrev  0x0000000000004e33      0x195 build/cooja/mtype308.a(uip-udp-packet.)
 .debug_abbrev  0x0000000000004fc8      0x2b0 build/cooja/mtype308.a(uip-ds6-route.o)
 .debug_abbrev  0x0000000000005278      0x3a7 build/cooja/mtype308.a(tcpip.o)
 .debug_abbrev  0x000000000000561f      0x2cc build/cooja/mtype308.a(uip6.o)
 .debug_abbrev  0x00000000000058eb      0x295 build/cooja/mtype308.a(uip-ds6-nbr.o)
 .debug_abbrev  0x0000000000005b80      0x232 build/cooja/mtype308.a(uip-nd6.o)
 .debug_abbrev  0x0000000000005db2      0x1e8 build/cooja/mtype308.a(simple-udp.o)
 .debug_abbrev  0x0000000000005f9a      0x2e2 build/cooja/mtype308.a(sicslowpan.o)
 .debug_abbrev  0x000000000000627c      0x11d build/cooja/mtype308.a(uiplib.o)
 .debug_abbrev  0x0000000000006399      0x2d2 build/cooja/mtype308.a(rpl.o)
 .debug_abbrev  0x000000000000666b      0x303 build/cooja/mtype308.a(rpl-icmp6.o)
 .debug_abbrev  0x000000000000696e      0x21b build/cooja/mtype308.a(rpl-dag-root.o)
 .debug_abbrev  0x0000000000006b89       0x6b build/cooja/mtype308.a(watchdog.o)
 .debug_abbrev  0x0000000000006bf4       0xcc build/cooja/mtype308.a(int-master.o)
 .debug_abbrev  0x0000000000006cc0      0x184 build/cooja/mtype308.a(coap-timer-defa)
 .debug_abbrev  0x0000000000006e44       0xbf build/cooja/mtype308.a(stimer.o)
 .debug_abbrev  0x0000000000006f03       0xdb build/cooja/mtype308.a(ringbuf.o)
 .debug_abbrev  0x0000000000006fde       0x61 build/cooja/mtype308.a(assert.o)
 .debug_abbrev  0x000000000000703f      0x201 build/cooja/mtype308.a(nbr-table.o)
 .debug_abbrev  0x0000000000007240      0x22b build/cooja/mtype308.a(link-stats.o)
 .debug_abbrev  0x000000000000746b       0xed build/cooja/mtype308.a(mac-sequence.o)
 .debug_abbrev  0x0000000000007558       0x8d build/cooja/mtype308.a(mac.o)
 .debug_abbrev  0x00000000000075e5      0x16c build/cooja/mtype308.a(framer-802154.o)
 .debug_abbrev  0x0000000000007751      0x215 build/cooja/mtype308.a(frame802154.o)
 .debug_abbrev  0x0000000000007966       0xa4 build/cooja/mtype308.a(csma-security.o)
 .debug_abbrev  0x0000000000007a0a      0x173 build/cooja/mtype308.a(uipbuf.o)
 .debug_abbrev  0x0000000000007b7d      0x29a build/cooja/mtype308.a(uip-icmp6.o)
 .debug_abbrev  0x0000000000007e17      0x24e build/cooja/mtype308.a(uip-sr.o)
 .debug_abbrev  0x0000000000008065      0x1d4 build/cooja/mtype308.a(uip-packetqueue)
 .debug_abbrev  0x0000000000008239      0x25f build/cooja/mtype308.a(rpl-nbr-policy.)
 .debug_abbrev  0x0000000000008498      0x31d build/cooja/mtype308.a(rpl-neighbor.o)
 .debug_abbrev  0x00000000000087b5      0x34c build/cooja/mtype308.a(rpl-dag.o)
 .debug_abbrev  0x0000000000008b01      0x297 build/cooja/mtype308.a(rpl-timers.o)
 .debug_abbrev  0x0000000000008d98      0x2f9 build/cooja/mtype308.a(rpl-ext-header.)
 .debug_abbrev  0x0000000000009091      0x1e5 build/cooja/mtype308.a(rpl-mrhof.o)

.debug_line     0x0000000000000000     0xa52f
 *(.debug_line .debug_line.* .debug_line_end)
 .debug_line    0x0000000000000000      0x3a5 client.o
 .debug_line    0x00000000000003a5      0x323 build/cooja/mtype308.o
 .debug_line    0x00000000000006c8       0xf5 build/cooja/mtype308.a(simEnvChange.o)
 .debug_line    0x00000000000007bd       0xd4 build/cooja/mtype308.a(cooja_mt.o)
 .debug_line    0x0000000000000891       0xcb build/cooja/mtype308.a(cooja_mtarch.o)
 .debug_line    0x000000000000095c       0xdd build/cooja/mtype308.a(rtimer-arch.o)
 .debug_line    0x0000000000000a39       0xe4 build/cooja/mtype308.a(beep.o)
 .debug_line    0x0000000000000b1d       0xea build/cooja/mtype308.a(leds-arch.o)
 .debug_line    0x0000000000000c07       0x9b build/cooja/mtype308.a(moteid.o)
 .debug_line    0x0000000000000ca2       0xd7 build/cooja/mtype308.a(pir-sensor.o)
 .debug_line    0x0000000000000d79       0xdc build/cooja/mtype308.a(rs232.o)
 .debug_line    0x0000000000000e55       0xd7 build/cooja/mtype308.a(vib-sensor.o)
 .debug_line    0x0000000000000f2c       0xd5 build/cooja/mtype308.a(clock.o)
 .debug_line    0x0000000000001001      0x12b build/cooja/mtype308.a(cooja-log.o)
 .debug_line    0x000000000000112c      0x124 build/cooja/mtype308.a(cfs-cooja.o)
 .debug_line    0x0000000000001250      0x2aa build/cooja/mtype308.a(cooja-radio.o)
 .debug_line    0x00000000000014fa       0xd6 build/cooja/mtype308.a(eeprom.o)
 .debug_line    0x00000000000015d0       0x50 build/cooja/mtype308.a(random.o)
 .debug_line    0x0000000000001620      0x126 build/cooja/mtype308.a(sensors.o)
 .debug_line    0x0000000000001746      0x128 build/cooja/mtype308.a(leds.o)
 .debug_line    0x000000000000186e      0x169 build/cooja/mtype308.a(gpio-hal-arch.o)
 .debug_line    0x00000000000019d7      0x1a3 build/cooja/mtype308.a(buttons.o)
 .debug_line    0x0000000000001b7a      0x165 build/cooja/mtype308.a(res_temperature)
 .debug_line    0x0000000000001cdf      0x202 build/cooja/mtype308.a(coap-blocking-a)
 .debug_line    0x0000000000001ee1      0x357 build/cooja/mtype308.a(coap-engine.o)
 .debug_line    0x0000000000002238      0x214 build/cooja/mtype308.a(coap-res-well-k)
 .debug_line    0x000000000000244c      0x30e build/cooja/mtype308.a(coap-observe.o)
 .debug_line    0x000000000000275a      0x38e build/cooja/mtype308.a(coap-uip.o)
 .debug_line    0x0000000000002ae8      0x10f build/cooja/mtype308.a(coap-timer.o)
 .debug_line    0x0000000000002bf7      0x1e4 build/cooja/mtype308.a(coap-transactio)
 .debug_line    0x0000000000002ddb      0x563 build/cooja/mtype308.a(coap.o)
 .debug_line    0x000000000000333e      0x3c9 build/cooja/mtype308.a(contiki-main.o)
 .debug_line    0x0000000000003707       0x9d build/cooja/mtype308.a(autostart.o)
 .debug_line    0x00000000000037a4      0x181 build/cooja/mtype308.a(ctimer.o)
 .debug_line    0x0000000000003925      0x16a build/cooja/mtype308.a(log.o)
 .debug_line    0x0000000000003a8f       0x6d build/cooja/mtype308.a(energest.o)
 .debug_line    0x0000000000003afc      0x1a4 build/cooja/mtype308.a(etimer.o)
 .debug_line    0x0000000000003ca0       0x8a build/cooja/mtype308.a(node-id.o)
 .debug_line    0x0000000000003d2a       0x8f build/cooja/mtype308.a(rtimer.o)
 .debug_line    0x0000000000003db9      0x187 build/cooja/mtype308.a(process.o)
 .debug_line    0x0000000000003f40       0xa7 build/cooja/mtype308.a(timer.o)
 .debug_line    0x0000000000003fe7      0x119 build/cooja/mtype308.a(list.o)
 .debug_line    0x0000000000004100       0xc2 build/cooja/mtype308.a(memb.o)
 .debug_line    0x00000000000041c2      0x217 build/cooja/mtype308.a(button-hal.o)
 .debug_line    0x00000000000043d9      0x130 build/cooja/mtype308.a(serial-line.o)
 .debug_line    0x0000000000004509       0xc4 build/cooja/mtype308.a(gpio-hal.o)
 .debug_line    0x00000000000045cd       0xfa build/cooja/mtype308.a(queuebuf.o)
 .debug_line    0x00000000000046c7      0x112 build/cooja/mtype308.a(packetbuf.o)
 .debug_line    0x00000000000047d9      0x135 build/cooja/mtype308.a(netstack.o)
 .debug_line    0x000000000000490e       0x7d build/cooja/mtype308.a(linkaddr.o)
 .debug_line    0x000000000000498b      0x1ae build/cooja/mtype308.a(csma.o)
 .debug_line    0x0000000000004b39      0x389 build/cooja/mtype308.a(csma-output.o)
 .debug_line    0x0000000000004ec2      0x35a build/cooja/mtype308.a(uip-ds6.o)
 .debug_line    0x000000000000521c       0xde build/cooja/mtype308.a(uip-udp-packet.)
 .debug_line    0x00000000000052fa      0x230 build/cooja/mtype308.a(uip-ds6-route.o)
 .debug_line    0x000000000000552a      0x346 build/cooja/mtype308.a(tcpip.o)
 .debug_line    0x0000000000005870      0x598 build/cooja/mtype308.a(uip6.o)
 .debug_line    0x0000000000005e08      0x2a2 build/cooja/mtype308.a(uip-ds6-nbr.o)
 .debug_line    0x00000000000060aa      0x2c7 build/cooja/mtype308.a(uip-nd6.o)
 .debug_line    0x0000000000006371      0x13b build/cooja/mtype308.a(simple-udp.o)
 .debug_line    0x00000000000064ac      0x9f1 build/cooja/mtype308.a(sicslowpan.o)
 .debug_line    0x0000000000006e9d      0x1d1 build/cooja/mtype308.a(uiplib.o)
 .debug_line    0x000000000000706e      0x315 build/cooja/mtype308.a(rpl.o)
 .debug_line    0x0000000000007383      0x428 build/cooja/mtype308.a(rpl-icmp6.o)
 .debug_line    0x00000000000077ab      0x1ec build/cooja/mtype308.a(rpl-dag-root.o)
 .debug_line    0x0000000000007997       0xa1 build/cooja/mtype308.a(watchdog.o)
 .debug_line    0x0000000000007a38       0xa7 build/cooja/mtype308.a(int-master.o)
 .debug_line    0x0000000000007adf      0x165 build/cooja/mtype308.a(coap-timer-defa)
 .debug_line    0x0000000000007c44       0x7a build/cooja/mtype308.a(stimer.o)
 .debug_line    0x0000000000007cbe       0x9d build/cooja/mtype308.a(ringbuf.o)
 .debug_line    0x0000000000007d5b       0x4e build/cooja/mtype308.a(assert.o)
 .debug_line    0x0000000000007da9      0x24f build/cooja/mtype308.a(nbr-table.o)
 .debug_line    0x0000000000007ff8      0x218 build/cooja/mtype308.a(link-stats.o)
 .debug_line    0x0000000000008210      0x120 build/cooja/mtype308.a(mac-sequence.o)
 .debug_line    0x0000000000008330       0x59 build/cooja/mtype308.a(mac.o)
 .debug_line    0x0000000000008389      0x18c build/cooja/mtype308.a(framer-802154.o)
 .debug_line    0x0000000000008515      0x2c7 build/cooja/mtype308.a(frame802154.o)
 .debug_line    0x00000000000087dc       0xc1 build/cooja/mtype308.a(csma-security.o)
 .debug_line    0x000000000000889d      0x14f build/cooja/mtype308.a(uipbuf.o)
 .debug_line    0x00000000000089ec      0x2fb build/cooja/mtype308.a(uip-icmp6.o)
 .debug_line    0x0000000000008ce7      0x309 build/cooja/mtype308.a(uip-sr.o)
 .debug_line    0x0000000000008ff0      0x176 build/cooja/mtype308.a(uip-packetqueue)
 .debug_line    0x0000000000009166      0x1f6 build/cooja/mtype308.a(rpl-nbr-policy.)
 .debug_line    0x000000000000935c      0x38e build/cooja/mtype308.a(rpl-neighbor.o)
 .debug_line    0x00000000000096ea      0x428 build/cooja/mtype308.a(rpl-dag.o)
 .debug_line    0x0000000000009b12      0x30e build/cooja/mtype308.a(rpl-timers.o)
 .debug_line    0x0000000000009e20      0x498 build/cooja/mtype308.a(rpl-ext-header.)
 .debug_line    0x000000000000a2b8      0x277 build/cooja/mtype308.a(rpl-mrhof.o)

.debug_frame
 *(.debug_frame)

.debug_str      0x0000000000000000     0x9d12
 *(.debug_str)
 .debug_str     0x0000000000000000      0xc2f client.o
                                        0xfa1 (size before relaxing)
 .debug_str     0x0000000000000c2f     0x175a build/cooja/mtype308.o
                                       0x1970 (size before relaxing)
 .debug_str     0x0000000000002389       0x6c build/cooja/mtype308.a(simEnvChange.o)
                                        0x201 (size before relaxing)
 .debug_str     0x00000000000023f5       0x5b build/cooja/mtype308.a(cooja_mt.o)
                                        0x202 (size before relaxing)
 .debug_str     0x0000000000002450       0x9a build/cooja/mtype308.a(cooja_mtarch.o)
                                        0x207 (size before relaxing)
 .debug_str     0x00000000000024ea      0x112 build/cooja/mtype308.a(rtimer-arch.o)
                                        0x254 (size before relaxing)
 .debug_str     0x00000000000025fc       0xc9 build/cooja/mtype308.a(beep.o)
                                        0x24b (size before relaxing)
 .debug_str     0x00000000000026c5       0xa1 build/cooja/mtype308.a(leds-arch.o)
                                        0x258 (size before relaxing)
 .debug_str     0x0000000000002766       0x4c build/cooja/mtype308.a(moteid.o)
                                        0x201 (size before relaxing)
 .debug_str     0x00000000000027b2       0x5a build/cooja/mtype308.a(pir-sensor.o)
                                        0x238 (size before relaxing)
 .debug_str     0x000000000000280c       0xc6 build/cooja/mtype308.a(rs232.o)
                                        0x28c (size before relaxing)
 .debug_str     0x00000000000028d2       0x5a build/cooja/mtype308.a(vib-sensor.o)
                                        0x238 (size before relaxing)
 .debug_str     0x000000000000292c       0x76 build/cooja/mtype308.a(clock.o)
                                        0x22d (size before relaxing)
 .debug_str     0x00000000000029a2       0xdc build/cooja/mtype308.a(cooja-log.o)
                                        0x2b8 (size before relaxing)
 .debug_str     0x0000000000002a7e      0x111 build/cooja/mtype308.a(cfs-cooja.o)
                                        0x2ce (size before relaxing)
 .debug_str     0x0000000000002b8f      0x77d build/cooja/mtype308.a(cooja-radio.o)
                                        0xa72 (size before relaxing)
 .debug_str     0x000000000000330c       0x9e build/cooja/mtype308.a(eeprom.o)
                                        0x24e (size before relaxing)
 .debug_str     0x00000000000033aa       0x39 build/cooja/mtype308.a(random.o)
                                        0x166 (size before relaxing)
 .debug_str     0x00000000000033e3       0x9f build/cooja/mtype308.a(sensors.o)
                                        0x296 (size before relaxing)
 .debug_str     0x0000000000003482       0x90 build/cooja/mtype308.a(leds.o)
                                        0x221 (size before relaxing)
 .debug_str     0x0000000000003512      0x2ab build/cooja/mtype308.a(gpio-hal-arch.o)
                                        0x413 (size before relaxing)
 .debug_str     0x00000000000037bd      0x112 build/cooja/mtype308.a(buttons.o)
                                        0x3cf (size before relaxing)
 .debug_str     0x00000000000038cf      0x41d build/cooja/mtype308.a(res_temperature)
                                        0xc13 (size before relaxing)
 .debug_str     0x0000000000003cec       0xba build/cooja/mtype308.a(coap-blocking-a)
                                        0x78b (size before relaxing)
 .debug_str     0x0000000000003da6      0x31d build/cooja/mtype308.a(coap-engine.o)
                                        0xe10 (size before relaxing)
 .debug_str     0x00000000000040c3       0x6e build/cooja/mtype308.a(coap-res-well-k)
                                        0xbed (size before relaxing)
 .debug_str     0x0000000000004131      0x1f9 build/cooja/mtype308.a(coap-observe.o)
                                        0xcfe (size before relaxing)
 .debug_str     0x000000000000432a      0x218 build/cooja/mtype308.a(coap-uip.o)
                                        0xa01 (size before relaxing)
 .debug_str     0x0000000000004542       0xbd build/cooja/mtype308.a(coap-timer.o)
                                        0x2b8 (size before relaxing)
 .debug_str     0x00000000000045ff      0x122 build/cooja/mtype308.a(coap-transactio)
                                        0x83b (size before relaxing)
 .debug_str     0x0000000000004721      0x5e4 build/cooja/mtype308.a(coap.o)
                                        0xe6a (size before relaxing)
 .debug_str     0x0000000000004d05      0x4d0 build/cooja/mtype308.a(contiki-main.o)
                                        0xd3f (size before relaxing)
 .debug_str     0x00000000000051d5       0x3e build/cooja/mtype308.a(autostart.o)
                                        0x1c2 (size before relaxing)
 .debug_str     0x0000000000005213       0xc9 build/cooja/mtype308.a(ctimer.o)
                                        0x2c3 (size before relaxing)
 .debug_str     0x00000000000052dc      0x1b7 build/cooja/mtype308.a(log.o)
                                        0x376 (size before relaxing)
 .debug_str     0x0000000000005493       0x53 build/cooja/mtype308.a(energest.o)
                                        0x189 (size before relaxing)
 .debug_str     0x00000000000054e6      0x13c build/cooja/mtype308.a(etimer.o)
                                        0x336 (size before relaxing)
 .debug_str     0x0000000000005622       0x2a build/cooja/mtype308.a(node-id.o)
                                        0x186 (size before relaxing)
 .debug_str     0x000000000000564c       0xb6 build/cooja/mtype308.a(rtimer.o)
                                        0x20d (size before relaxing)
 .debug_str     0x0000000000005702      0x15a build/cooja/mtype308.a(process.o)
                                        0x2f8 (size before relaxing)
 .debug_str     0x000000000000585c       0x1b build/cooja/mtype308.a(timer.o)
                                        0x1b1 (size before relaxing)
 .debug_str     0x0000000000005877       0xba build/cooja/mtype308.a(list.o)
                                        0x208 (size before relaxing)
 .debug_str     0x0000000000005931       0x60 build/cooja/mtype308.a(memb.o)
                                        0x1a2 (size before relaxing)
 .debug_str     0x0000000000005991      0x1cf build/cooja/mtype308.a(button-hal.o)
                                        0x4d7 (size before relaxing)
 .debug_str     0x0000000000005b60       0xa0 build/cooja/mtype308.a(serial-line.o)
                                        0x281 (size before relaxing)
 .debug_str     0x0000000000005c00       0xf2 build/cooja/mtype308.a(gpio-hal.o)
                                        0x2d7 (size before relaxing)
 .debug_str     0x0000000000005cf2      0x1d0 build/cooja/mtype308.a(queuebuf.o)
                                        0x4f7 (size before relaxing)
 .debug_str     0x0000000000005ec2      0x1ba build/cooja/mtype308.a(packetbuf.o)
                                        0x534 (size before relaxing)
 .debug_str     0x000000000000607c      0x16d build/cooja/mtype308.a(netstack.o)
                                        0x462 (size before relaxing)
 .debug_str     0x00000000000061e9       0x56 build/cooja/mtype308.a(linkaddr.o)
                                        0x1c3 (size before relaxing)
 .debug_str     0x000000000000623f       0x95 build/cooja/mtype308.a(csma.o)
                                        0x7ba (size before relaxing)
 .debug_str     0x00000000000062d4      0x288 build/cooja/mtype308.a(csma-output.o)
                                        0x85a (size before relaxing)
 .debug_str     0x000000000000655c      0x3f5 build/cooja/mtype308.a(uip-ds6.o)
                                        0x6f4 (size before relaxing)
 .debug_str     0x0000000000006951       0x7a build/cooja/mtype308.a(uip-udp-packet.)
                                        0x294 (size before relaxing)
 .debug_str     0x00000000000069cb      0x228 build/cooja/mtype308.a(uip-ds6-route.o)
                                        0x5e7 (size before relaxing)
 .debug_str     0x0000000000006bf3      0x2b5 build/cooja/mtype308.a(tcpip.o)
                                        0x9f6 (size before relaxing)
 .debug_str     0x0000000000006ea8      0x1f4 build/cooja/mtype308.a(uip6.o)
                                        0xa34 (size before relaxing)
 .debug_str     0x000000000000709c      0x202 build/cooja/mtype308.a(uip-ds6-nbr.o)
                                        0x893 (size before relaxing)
 .debug_str     0x000000000000729e      0x123 build/cooja/mtype308.a(uip-nd6.o)
                                        0x600 (size before relaxing)
 .debug_str     0x00000000000073c1       0xb7 build/cooja/mtype308.a(simple-udp.o)
                                        0x444 (size before relaxing)
 .debug_str     0x0000000000007478      0x58f build/cooja/mtype308.a(sicslowpan.o)
                                        0xf31 (size before relaxing)
 .debug_str     0x0000000000007a07       0x96 build/cooja/mtype308.a(uiplib.o)
                                        0x20d (size before relaxing)
 .debug_str     0x0000000000007a9d      0x2b8 build/cooja/mtype308.a(rpl.o)
                                        0xba8 (size before relaxing)
 .debug_str     0x0000000000007d55      0x1e3 build/cooja/mtype308.a(rpl-icmp6.o)
                                        0xc68 (size before relaxing)
 .debug_str     0x0000000000007f38       0xa7 build/cooja/mtype308.a(rpl-dag-root.o)
                                        0x859 (size before relaxing)
 .debug_str     0x0000000000007fdf       0x7c build/cooja/mtype308.a(watchdog.o)
                                        0x1bc (size before relaxing)
 .debug_str     0x000000000000805b       0x8e build/cooja/mtype308.a(int-master.o)
                                        0x1e5 (size before relaxing)
 .debug_str     0x00000000000080e9       0x73 build/cooja/mtype308.a(coap-timer-defa)
                                        0x2a5 (size before relaxing)
 .debug_str     0x000000000000815c       0x72 build/cooja/mtype308.a(stimer.o)
                                        0x1b5 (size before relaxing)
 .debug_str     0x00000000000081ce       0x60 build/cooja/mtype308.a(ringbuf.o)
                                        0x1c4 (size before relaxing)
 .debug_str     0x000000000000822e       0x2c build/cooja/mtype308.a(assert.o)
                                        0x15e (size before relaxing)
 .debug_str     0x000000000000825a      0x272 build/cooja/mtype308.a(nbr-table.o)
                                        0x5aa (size before relaxing)
 .debug_str     0x00000000000084cc      0x12f build/cooja/mtype308.a(link-stats.o)
                                        0x6be (size before relaxing)
 .debug_str     0x00000000000085fb       0x76 build/cooja/mtype308.a(mac-sequence.o)
                                        0x384 (size before relaxing)
 .debug_str     0x0000000000008671       0x3b build/cooja/mtype308.a(mac.o)
                                        0x18f (size before relaxing)
 .debug_str     0x00000000000086ac      0x233 build/cooja/mtype308.a(framer-802154.o)
                                        0x5cc (size before relaxing)
 .debug_str     0x00000000000088df      0x1f8 build/cooja/mtype308.a(frame802154.o)
                                        0x57b (size before relaxing)
 .debug_str     0x0000000000008ad7       0x61 build/cooja/mtype308.a(csma-security.o)
                                        0x35c (size before relaxing)
 .debug_str     0x0000000000008b38      0x1b0 build/cooja/mtype308.a(uipbuf.o)
                                        0x45a (size before relaxing)
 .debug_str     0x0000000000008ce8      0x1f3 build/cooja/mtype308.a(uip-icmp6.o)
                                        0x927 (size before relaxing)
 .debug_str     0x0000000000008edb      0x181 build/cooja/mtype308.a(uip-sr.o)
                                        0x71c (size before relaxing)
 .debug_str     0x000000000000905c       0xf9 build/cooja/mtype308.a(uip-packetqueue)
                                        0x346 (size before relaxing)
 .debug_str     0x0000000000009155       0xaa build/cooja/mtype308.a(rpl-nbr-policy.)
                                        0x9ba (size before relaxing)
 .debug_str     0x00000000000091ff      0x294 build/cooja/mtype308.a(rpl-neighbor.o)
                                        0xa30 (size before relaxing)
 .debug_str     0x0000000000009493      0x2d6 build/cooja/mtype308.a(rpl-dag.o)
                                        0xb58 (size before relaxing)
 .debug_str     0x0000000000009769      0x327 build/cooja/mtype308.a(rpl-timers.o)
                                        0xa24 (size before relaxing)
 .debug_str     0x0000000000009a90      0x1b8 build/cooja/mtype308.a(rpl-ext-header.)
                                        0xf69 (size before relaxing)
 .debug_str     0x0000000000009c48       0xca build/cooja/mtype308.a(rpl-mrhof.o)
                                        0x721 (size before relaxing)

.debug_loc
 *(.debug_loc)

.debug_macinfo
 *(.debug_macinfo)

.debug_weaknames
 *(.debug_weaknames)

.debug_funcnames
 *(.debug_funcnames)

.debug_typenames
 *(.debug_typenames)

.debug_varnames
 *(.debug_varnames)

.debug_pubtypes
 *(.debug_pubtypes)

.debug_ranges   0x0000000000000000      0x100
 *(.debug_ranges)
 .debug_ranges  0x0000000000000000       0x18 build/cooja/mtype308.a(etimer.o)
 .debug_ranges  0x0000000000000018       0x30 build/cooja/mtype308.a(csma-output.o)
 .debug_ranges  0x0000000000000048       0x18 build/cooja/mtype308.a(tcpip.o)
 .debug_ranges  0x0000000000000060       0x28 build/cooja/mtype308.a(uip-nd6.o)
 .debug_ranges  0x0000000000000088       0x48 build/cooja/mtype308.a(sicslowpan.o)
 .debug_ranges  0x00000000000000d0       0x30 build/cooja/mtype308.a(nbr-table.o)

.debug_macro
 *(.debug_macro)

.gnu.attributes
 *(.gnu.attributes)

/DISCARD/
 *(.note.GNU-stack)
 *(.gnu_debuglink)
 *(.gnu.lto_*)
OUTPUT(build/cooja/mtype308.cooja elf32-i386)
